   1                     ; C Compiler for STM8 (COSMIC Software)
   2                     ; Parser V4.12.8.1 - 09 Jan 2023
   3                     ; Generator (Limited) V4.5.5 - 08 Nov 2022
2786                     	switch	.data
2787  0000               _numb_arr:
2788  0000 003e          	dc.w	62
2789  0002 0041          	dc.w	65
2790  0004 0041          	dc.w	65
2791  0006 003e          	dc.w	62
2792  0008 0000          	dc.w	0
2793  000a 0000          	dc.w	0
2794  000c 0004          	dc.w	4
2795  000e 0002          	dc.w	2
2796  0010 007f          	dc.w	127
2797  0012 0000          	dc.w	0
2798  0014 0062          	dc.w	98
2799  0016 0051          	dc.w	81
2800  0018 0049          	dc.w	73
2801  001a 0046          	dc.w	70
2802  001c 0000          	dc.w	0
2803  001e 0022          	dc.w	34
2804  0020 0049          	dc.w	73
2805  0022 0049          	dc.w	73
2806  0024 0036          	dc.w	54
2807  0026 0000          	dc.w	0
2808  0028 000f          	dc.w	15
2809  002a 0008          	dc.w	8
2810  002c 0008          	dc.w	8
2811  002e 007f          	dc.w	127
2812  0030 0000          	dc.w	0
2813  0032 004f          	dc.w	79
2814  0034 0049          	dc.w	73
2815  0036 0049          	dc.w	73
2816  0038 0031          	dc.w	49
2817  003a 0000          	dc.w	0
2818  003c 003e          	dc.w	62
2819  003e 0049          	dc.w	73
2820  0040 0049          	dc.w	73
2821  0042 0032          	dc.w	50
2822  0044 0000          	dc.w	0
2823  0046 0001          	dc.w	1
2824  0048 0071          	dc.w	113
2825  004a 0009          	dc.w	9
2826  004c 0007          	dc.w	7
2827  004e 0000          	dc.w	0
2828  0050 0036          	dc.w	54
2829  0052 0049          	dc.w	73
2830  0054 0049          	dc.w	73
2831  0056 0036          	dc.w	54
2832  0058 0000          	dc.w	0
2833  005a 0026          	dc.w	38
2834  005c 0049          	dc.w	73
2835  005e 0049          	dc.w	73
2836  0060 003e          	dc.w	62
2837  0062 0000          	dc.w	0
2838  0064 0000          	dc.w	0
2839  0066 0000          	dc.w	0
2840  0068 0040          	dc.w	64
2841  006a 0000          	dc.w	0
2842  006c 0000          	dc.w	0
2843  006e               _Hsymb_arr:
2844  006e 007e          	dc.w	126
2845  0070 0009          	dc.w	9
2846  0072 0009          	dc.w	9
2847  0074 0009          	dc.w	9
2848  0076 007e          	dc.w	126
2849  0078 0000          	dc.w	0
2850  007a 007e          	dc.w	126
2851  007c 0049          	dc.w	73
2852  007e 0049          	dc.w	73
2853  0080 0049          	dc.w	73
2854  0082 0036          	dc.w	54
2855  0084 0000          	dc.w	0
2856  0086 003e          	dc.w	62
2857  0088 0041          	dc.w	65
2858  008a 0041          	dc.w	65
2859  008c 0041          	dc.w	65
2860  008e 0022          	dc.w	34
2861  0090 0000          	dc.w	0
2862  0092 007f          	dc.w	127
2863  0094 0041          	dc.w	65
2864  0096 0041          	dc.w	65
2865  0098 0041          	dc.w	65
2866  009a 003e          	dc.w	62
2867  009c 0000          	dc.w	0
2868  009e 007f          	dc.w	127
2869  00a0 0049          	dc.w	73
2870  00a2 0049          	dc.w	73
2871  00a4 0049          	dc.w	73
2872  00a6 0041          	dc.w	65
2873  00a8 0000          	dc.w	0
2874  00aa 007f          	dc.w	127
2875  00ac 0009          	dc.w	9
2876  00ae 0009          	dc.w	9
2877  00b0 0009          	dc.w	9
2878  00b2 0001          	dc.w	1
2879  00b4 0000          	dc.w	0
2880  00b6 003e          	dc.w	62
2881  00b8 0041          	dc.w	65
2882  00ba 0049          	dc.w	73
2883  00bc 0049          	dc.w	73
2884  00be 003a          	dc.w	58
2885  00c0 0000          	dc.w	0
2886  00c2 007f          	dc.w	127
2887  00c4 0008          	dc.w	8
2888  00c6 0008          	dc.w	8
2889  00c8 0008          	dc.w	8
2890  00ca 007f          	dc.w	127
2891  00cc 0000          	dc.w	0
2892  00ce 0000          	dc.w	0
2893  00d0 0041          	dc.w	65
2894  00d2 007f          	dc.w	127
2895  00d4 0041          	dc.w	65
2896  00d6 0000          	dc.w	0
2897  00d8 0000          	dc.w	0
2898  00da 0020          	dc.w	32
2899  00dc 0041          	dc.w	65
2900  00de 003f          	dc.w	63
2901  00e0 0001          	dc.w	1
2902  00e2 0000          	dc.w	0
2903  00e4 0000          	dc.w	0
2904  00e6 007f          	dc.w	127
2905  00e8 0008          	dc.w	8
2906  00ea 0014          	dc.w	20
2907  00ec 0022          	dc.w	34
2908  00ee 0041          	dc.w	65
2909  00f0 0000          	dc.w	0
2910  00f2 007f          	dc.w	127
2911  00f4 0040          	dc.w	64
2912  00f6 0040          	dc.w	64
2913  00f8 0040          	dc.w	64
2914  00fa 0040          	dc.w	64
2915  00fc 0000          	dc.w	0
2916  00fe 007f          	dc.w	127
2917  0100 0002          	dc.w	2
2918  0102 0004          	dc.w	4
2919  0104 0002          	dc.w	2
2920  0106 007f          	dc.w	127
2921  0108 0000          	dc.w	0
2922  010a 007f          	dc.w	127
2923  010c 0004          	dc.w	4
2924  010e 0008          	dc.w	8
2925  0110 0010          	dc.w	16
2926  0112 007f          	dc.w	127
2927  0114 0000          	dc.w	0
2928  0116 003e          	dc.w	62
2929  0118 0041          	dc.w	65
2930  011a 0041          	dc.w	65
2931  011c 0041          	dc.w	65
2932  011e 003e          	dc.w	62
2933  0120 0000          	dc.w	0
2934  0122 007f          	dc.w	127
2935  0124 0009          	dc.w	9
2936  0126 0009          	dc.w	9
2937  0128 0009          	dc.w	9
2938  012a 0006          	dc.w	6
2939  012c 0000          	dc.w	0
2940  012e 003e          	dc.w	62
2941  0130 0041          	dc.w	65
2942  0132 0041          	dc.w	65
2943  0134 0021          	dc.w	33
2944  0136 005e          	dc.w	94
2945  0138 0000          	dc.w	0
2946  013a 007f          	dc.w	127
2947  013c 0009          	dc.w	9
2948  013e 0019          	dc.w	25
2949  0140 0029          	dc.w	41
2950  0142 0046          	dc.w	70
2951  0144 0000          	dc.w	0
2952  0146 0026          	dc.w	38
2953  0148 0049          	dc.w	73
2954  014a 0049          	dc.w	73
2955  014c 0049          	dc.w	73
2956  014e 0032          	dc.w	50
2957  0150 0000          	dc.w	0
2958  0152 0001          	dc.w	1
2959  0154 0001          	dc.w	1
2960  0156 007f          	dc.w	127
2961  0158 0001          	dc.w	1
2962  015a 0001          	dc.w	1
2963  015c 0000          	dc.w	0
2964  015e 003f          	dc.w	63
2965  0160 0040          	dc.w	64
2966  0162 0040          	dc.w	64
2967  0164 0040          	dc.w	64
2968  0166 003f          	dc.w	63
2969  0168 0000          	dc.w	0
2970  016a 001f          	dc.w	31
2971  016c 0020          	dc.w	32
2972  016e 0040          	dc.w	64
2973  0170 0020          	dc.w	32
2974  0172 001f          	dc.w	31
2975  0174 0000          	dc.w	0
2976  0176 003f          	dc.w	63
2977  0178 0040          	dc.w	64
2978  017a 0030          	dc.w	48
2979  017c 0040          	dc.w	64
2980  017e 003f          	dc.w	63
2981  0180 0000          	dc.w	0
2982  0182 0043          	dc.w	67
2983  0184 0024          	dc.w	36
2984  0186 0018          	dc.w	24
2985  0188 0024          	dc.w	36
2986  018a 0043          	dc.w	67
2987  018c 0000          	dc.w	0
2988  018e 0007          	dc.w	7
2989  0190 0008          	dc.w	8
2990  0192 0070          	dc.w	112
2991  0194 0008          	dc.w	8
2992  0196 0007          	dc.w	7
2993  0198 0000          	dc.w	0
2994  019a 0061          	dc.w	97
2995  019c 0051          	dc.w	81
2996  019e 0049          	dc.w	73
2997  01a0 0045          	dc.w	69
2998  01a2 0043          	dc.w	67
2999  01a4 0000          	dc.w	0
3000  01a6 0008          	dc.w	8
3001  01a8 0008          	dc.w	8
3002  01aa 0008          	dc.w	8
3003  01ac 0008          	dc.w	8
3004  01ae 0008          	dc.w	8
3005  01b0 0000          	dc.w	0
3006  01b2 0008          	dc.w	8
3007  01b4 0008          	dc.w	8
3008  01b6 003e          	dc.w	62
3009  01b8 0008          	dc.w	8
3010  01ba 0008          	dc.w	8
3011  01bc 0000          	dc.w	0
3012  01be 0014          	dc.w	20
3013  01c0 0014          	dc.w	20
3014  01c2 0014          	dc.w	20
3015  01c4 0014          	dc.w	20
3016  01c6 0014          	dc.w	20
3017  01c8 0000          	dc.w	0
3018  01ca 0000          	dc.w	0
3019  01cc 0000          	dc.w	0
3020  01ce 0022          	dc.w	34
3021  01d0 0000          	dc.w	0
3022  01d2 0000          	dc.w	0
3023  01d4 0000          	dc.w	0
3024  01d6 0000          	dc.w	0
3025  01d8 001c          	dc.w	28
3026  01da 001c          	dc.w	28
3027  01dc 001c          	dc.w	28
3028  01de 0000          	dc.w	0
3029  01e0 0000          	dc.w	0
3030  01e2 0000          	dc.w	0
3031  01e4 0000          	dc.w	0
3032  01e6 0000          	dc.w	0
3033  01e8 0000          	dc.w	0
3034  01ea 0000          	dc.w	0
3035  01ec 0000          	dc.w	0
3036  01ee 003c          	dc.w	60
3037  01f0 0040          	dc.w	64
3038  01f2 0040          	dc.w	64
3039  01f4 007c          	dc.w	124
3040  01f6 0000          	dc.w	0
3041  01f8 0000          	dc.w	0
3042  01fa 0048          	dc.w	72
3043  01fc 0054          	dc.w	84
3044  01fe 0054          	dc.w	84
3045  0200 0024          	dc.w	36
3046  0202 0000          	dc.w	0
3047  0204 0000          	dc.w	0
3048  0206 0044          	dc.w	68
3049  0208 0064          	dc.w	100
3050  020a 0054          	dc.w	84
3051  020c 004c          	dc.w	76
3052  020e 0000          	dc.w	0
3053  0210 0000          	dc.w	0
3054  0212 0000          	dc.w	0
3055  0214 001c          	dc.w	28
3056  0216 0014          	dc.w	20
3057  0218 001c          	dc.w	28
3058  021a 0000          	dc.w	0
3059  021c 0000          	dc.w	0
3060  021e               _sin_arr:
3061  021e 0000          	dc.w	0
3062  0220 0000          	dc.w	0
3063  0222 0000          	dc.w	0
3064  0224 0001          	dc.w	1
3065  0226 0001          	dc.w	1
3066  0228 0002          	dc.w	2
3067  022a 0003          	dc.w	3
3068  022c 0004          	dc.w	4
3069  022e 0005          	dc.w	5
3070  0230 0006          	dc.w	6
3071  0232 0007          	dc.w	7
3072  0234 0009          	dc.w	9
3073  0236 000a          	dc.w	10
3074  0238 000c          	dc.w	12
3075  023a 000d          	dc.w	13
3076  023c 000f          	dc.w	15
3077  023e 0011          	dc.w	17
3078  0240 0012          	dc.w	18
3079  0242 0014          	dc.w	20
3080  0244 0015          	dc.w	21
3081  0246 0016          	dc.w	22
3082  0248 0018          	dc.w	24
3083  024a 0019          	dc.w	25
3084  024c 001a          	dc.w	26
3085  024e 001b          	dc.w	27
3086  0250 001c          	dc.w	28
3087  0252 001d          	dc.w	29
3088  0254 001d          	dc.w	29
3089  0256 001e          	dc.w	30
3090  0258 001e          	dc.w	30
3091  025a 001e          	dc.w	30
3092  025c 001e          	dc.w	30
3093  025e 001e          	dc.w	30
3094  0260 001d          	dc.w	29
3095  0262 001d          	dc.w	29
3096  0264 001c          	dc.w	28
3097  0266 001b          	dc.w	27
3098  0268 001a          	dc.w	26
3099  026a 0019          	dc.w	25
3100  026c 0018          	dc.w	24
3101  026e 0016          	dc.w	22
3102  0270 0015          	dc.w	21
3103  0272 0014          	dc.w	20
3104  0274 0012          	dc.w	18
3105  0276 0011          	dc.w	17
3106  0278 000f          	dc.w	15
3107  027a 000d          	dc.w	13
3108  027c 000c          	dc.w	12
3109  027e 000a          	dc.w	10
3110  0280 0009          	dc.w	9
3111  0282 0008          	dc.w	8
3112  0284 0006          	dc.w	6
3113  0286 0005          	dc.w	5
3114  0288 0004          	dc.w	4
3115  028a 0003          	dc.w	3
3116  028c 0002          	dc.w	2
3117  028e 0001          	dc.w	1
3118  0290 0001          	dc.w	1
3119  0292 0000          	dc.w	0
3120  0294 0000          	dc.w	0
3205                     .const:	section	.text
3206  0000               L23:
3207  0000 0000032a      	dc.l	810
3208  0004               L43:
3209  0004 0000001e      	dc.l	30
3210  0008               L63:
3211  0008 0000ffff      	dc.l	65535
3212  000c               L04:
3213  000c 00000654      	dc.l	1620
3214  0010               L24:
3215  0010 0000032b      	dc.l	811
3216  0014               L44:
3217  0014 0000029a      	dc.l	666
3218                     ; 139 main()
3218                     ; 140 {
3219                     	scross	off
3220                     	switch	.text
3221  0000               _main:
3223  0000 5208          	subw	sp,#8
3224       00000008      OFST:	set	8
3227                     ; 141 	CLK_CKDIVR = 0x00;
3229  0002 725f50c6      	clr	_CLK_CKDIVR
3230                     ; 142 	SPI_CR1 = 0x05;
3232  0006 35055200      	mov	_SPI_CR1,#5
3233                     ; 143 	SPI_CR2 = 0x03;
3235  000a 35035201      	mov	_SPI_CR2,#3
3236                     ; 144 	SPI_CR1 ^= 0x40;
3238  000e 901c5200      	bcpl	_SPI_CR1,#6
3239                     ; 145 	PA_DDR = 0xFF;
3241  0012 35ff5002      	mov	_PA_DDR,#255
3242                     ; 146 	PA_CR1 = 0xFF;
3244  0016 35ff5003      	mov	_PA_CR1,#255
3245                     ; 147 	PA_CR2 = 0xFF;
3247  001a 35ff5004      	mov	_PA_CR2,#255
3248                     ; 148 	PB_DDR = 0xFF;
3250  001e 35ff5007      	mov	_PB_DDR,#255
3251                     ; 149 	PF_DDR |= 0xF9;
3253  0022 c6501b        	ld	a,_PF_DDR
3254  0025 aaf9          	or	a,#249
3255  0027 c7501b        	ld	_PF_DDR,a
3256                     ; 150 	PB_CR1 = 0xFF;
3258  002a 35ff5008      	mov	_PB_CR1,#255
3259                     ; 151 	PB_CR2 = 0xFF;
3261  002e 35ff5009      	mov	_PB_CR2,#255
3262                     ; 152 	PF_CR1 |= 0xF9;
3264  0032 c6501c        	ld	a,_PF_CR1
3265  0035 aaf9          	or	a,#249
3266  0037 c7501c        	ld	_PF_CR1,a
3267                     ; 153 	PF_CR2 |= 0xF9;
3269  003a c6501d        	ld	a,_PF_CR2
3270  003d aaf9          	or	a,#249
3271  003f c7501d        	ld	_PF_CR2,a
3272                     ; 154 	PE_DDR = 0xF0;
3274  0042 35f05016      	mov	_PE_DDR,#240
3275                     ; 155 	PE_CR1 = 0xFF;
3277  0046 35ff5017      	mov	_PE_CR1,#255
3278                     ; 156 	PE_CR2 = 0x0F;
3280  004a 350f5018      	mov	_PE_CR2,#15
3281                     ; 157 	EXTI_CR2 = 0x02;
3283  004e 350250a1      	mov	_EXTI_CR2,#2
3284                     ; 158 	_asm("rim");
3287  0052 9a            rim
3289                     ; 160 	start();
3291  0053 cd0b4c        	call	_start
3293                     ; 161 	clean();
3295  0056 cd0b74        	call	_clean
3297                     ; 162 	crystal_select(1);
3299  0059 ae0001        	ldw	x,#1
3300  005c cd0c58        	call	_crystal_select
3302                     ; 163 	coord(0,0);
3304  005f 5f            	clrw	x
3305  0060 89            	pushw	x
3306  0061 5f            	clrw	x
3307  0062 cd0bca        	call	_coord
3309  0065 85            	popw	x
3310                     ; 165 	start_stop_flag = 0;
3312  0066 5f            	clrw	x
3313  0067 cf002e        	ldw	_start_stop_flag,x
3314                     ; 166 	cursor =0;
3316  006a 5f            	clrw	x
3317  006b cf0056        	ldw	_cursor,x
3318                     ; 167 	pre_cursor = 7;
3320  006e ae0007        	ldw	x,#7
3321  0071 cf0054        	ldw	_pre_cursor,x
3322                     ; 168 	left_right_menue_flag = 0;
3324  0074 5f            	clrw	x
3325  0075 cf0030        	ldw	_left_right_menue_flag,x
3326                     ; 169 	form_status = 0;
3328  0078 5f            	clrw	x
3329  0079 cf0052        	ldw	_form_status,x
3330                     ; 170 	pre_form_status = 1;
3332  007c ae0001        	ldw	x,#1
3333  007f cf0050        	ldw	_pre_form_status,x
3334                     ; 171 	frequency_value = 0;
3336  0082 ae0000        	ldw	x,#0
3337  0085 cf002c        	ldw	_frequency_value+2,x
3338  0088 ae0000        	ldw	x,#0
3339  008b cf002a        	ldw	_frequency_value,x
3340                     ; 172 	amplitude_value_10 = 0;
3342  008e 5f            	clrw	x
3343  008f cf004e        	ldw	_amplitude_value_10,x
3344                     ; 173 	tplus_value = 0;
3346  0092 ae0000        	ldw	x,#0
3347  0095 cf004a        	ldw	_tplus_value+2,x
3348  0098 ae0000        	ldw	x,#0
3349  009b cf0048        	ldw	_tplus_value,x
3350                     ; 174 	tminus_value = 0;
3352  009e ae0000        	ldw	x,#0
3353  00a1 cf0042        	ldw	_tminus_value+2,x
3354  00a4 ae0000        	ldw	x,#0
3355  00a7 cf0040        	ldw	_tminus_value,x
3356                     ; 175 	title_form();
3358  00aa cd0d18        	call	_title_form
3360                     ; 176 	title_freq();
3362  00ad cd0d5e        	call	_title_freq
3364                     ; 177 	title_ampl();
3366  00b0 cd0da6        	call	_title_ampl
3368                     ; 178 	title_tplus();
3370  00b3 cd0dec        	call	_title_tplus
3372                     ; 179 	title_tminus();
3374  00b6 cd0e0a        	call	_title_tminus
3376                     ; 180 	chose_form(form_status);
3378  00b9 ce0052        	ldw	x,_form_status
3379  00bc cd0e28        	call	_chose_form
3381                     ; 182 	print_start_stop(start_stop_flag);
3383  00bf ce002e        	ldw	x,_start_stop_flag
3384  00c2 cd12ad        	call	_print_start_stop
3386  00c5               L1002:
3387                     ; 185 		PE_CR2 = 0x0F;
3389  00c5 350f5018      	mov	_PE_CR2,#15
3391  00c9 acd701d7      	jpf	L1102
3392  00cd               L5002:
3393                     ; 187 			PE_CR2 = 0x0F;
3395  00cd 350f5018      	mov	_PE_CR2,#15
3396                     ; 188 			dac_write_raw(0);
3398  00d1 5f            	clrw	x
3399  00d2 cd1334        	call	_dac_write_raw
3401                     ; 189 			set_cursor(cursor);
3403  00d5 ce0056        	ldw	x,_cursor
3404  00d8 cd0ce0        	call	_set_cursor
3406                     ; 190 			clean_cursor(pre_cursor);
3408  00db ce0054        	ldw	x,_pre_cursor
3409  00de cd0ccb        	call	_clean_cursor
3411                     ; 191 			print_start_stop(start_stop_flag);
3413  00e1 ce002e        	ldw	x,_start_stop_flag
3414  00e4 cd12ad        	call	_print_start_stop
3416                     ; 192 			if((pre_frequency_value != frequency_value) | (pre_form_status != form_status)|
3416                     ; 193 			(pre_amplitude_value_10 != amplitude_value_10) | (pre_tplus_value != tplus_value) | (pre_tminus_value != tminus_value)){
3418  00e7 ae003c        	ldw	x,#_pre_tminus_value
3419  00ea cd0000        	call	c_ltor
3421  00ed ae0040        	ldw	x,#_tminus_value
3422  00f0 cd0000        	call	c_lcmp
3424  00f3 2705          	jreq	L6
3425  00f5 ae0001        	ldw	x,#1
3426  00f8 2001          	jra	L01
3427  00fa               L6:
3428  00fa 5f            	clrw	x
3429  00fb               L01:
3430  00fb 1f07          	ldw	(OFST-1,sp),x
3432  00fd ae0044        	ldw	x,#_pre_tplus_value
3433  0100 cd0000        	call	c_ltor
3435  0103 ae0048        	ldw	x,#_tplus_value
3436  0106 cd0000        	call	c_lcmp
3438  0109 2705          	jreq	L21
3439  010b ae0001        	ldw	x,#1
3440  010e 2001          	jra	L41
3441  0110               L21:
3442  0110 5f            	clrw	x
3443  0111               L41:
3444  0111 1f05          	ldw	(OFST-3,sp),x
3446  0113 ce004c        	ldw	x,_pre_amplitude_value_10
3447  0116 c3004e        	cpw	x,_amplitude_value_10
3448  0119 2705          	jreq	L61
3449  011b ae0001        	ldw	x,#1
3450  011e 2001          	jra	L02
3451  0120               L61:
3452  0120 5f            	clrw	x
3453  0121               L02:
3454  0121 1f03          	ldw	(OFST-5,sp),x
3456  0123 ce0050        	ldw	x,_pre_form_status
3457  0126 c30052        	cpw	x,_form_status
3458  0129 2705          	jreq	L22
3459  012b ae0001        	ldw	x,#1
3460  012e 2001          	jra	L42
3461  0130               L22:
3462  0130 5f            	clrw	x
3463  0131               L42:
3464  0131 1f01          	ldw	(OFST-7,sp),x
3466  0133 ae0026        	ldw	x,#_pre_frequency_value
3467  0136 cd0000        	call	c_ltor
3469  0139 ae002a        	ldw	x,#_frequency_value
3470  013c cd0000        	call	c_lcmp
3472  013f 2705          	jreq	L62
3473  0141 ae0001        	ldw	x,#1
3474  0144 2001          	jra	L03
3475  0146               L62:
3476  0146 5f            	clrw	x
3477  0147               L03:
3478  0147 01            	rrwa	x,a
3479  0148 1a02          	or	a,(OFST-6,sp)
3480  014a 01            	rrwa	x,a
3481  014b 1a01          	or	a,(OFST-7,sp)
3482  014d 01            	rrwa	x,a
3483  014e 01            	rrwa	x,a
3484  014f 1a04          	or	a,(OFST-4,sp)
3485  0151 01            	rrwa	x,a
3486  0152 1a03          	or	a,(OFST-5,sp)
3487  0154 01            	rrwa	x,a
3488  0155 01            	rrwa	x,a
3489  0156 1a06          	or	a,(OFST-2,sp)
3490  0158 01            	rrwa	x,a
3491  0159 1a05          	or	a,(OFST-3,sp)
3492  015b 01            	rrwa	x,a
3493  015c 01            	rrwa	x,a
3494  015d 1a08          	or	a,(OFST+0,sp)
3495  015f 01            	rrwa	x,a
3496  0160 1a07          	or	a,(OFST-1,sp)
3497  0162 01            	rrwa	x,a
3498  0163 a30000        	cpw	x,#0
3499  0166 276f          	jreq	L1102
3500                     ; 194 				pre_form_status = form_status;
3502  0168 ce0052        	ldw	x,_form_status
3503  016b cf0050        	ldw	_pre_form_status,x
3504                     ; 195 				pre_frequency_value = frequency_value;
3506  016e ce002c        	ldw	x,_frequency_value+2
3507  0171 cf0028        	ldw	_pre_frequency_value+2,x
3508  0174 ce002a        	ldw	x,_frequency_value
3509  0177 cf0026        	ldw	_pre_frequency_value,x
3510                     ; 196 				pre_amplitude_value_10 = amplitude_value_10;
3512  017a ce004e        	ldw	x,_amplitude_value_10
3513  017d cf004c        	ldw	_pre_amplitude_value_10,x
3514                     ; 197 				pre_tplus_value = tplus_value;
3516  0180 ce004a        	ldw	x,_tplus_value+2
3517  0183 cf0046        	ldw	_pre_tplus_value+2,x
3518  0186 ce0048        	ldw	x,_tplus_value
3519  0189 cf0044        	ldw	_pre_tplus_value,x
3520                     ; 198 				pre_tminus_value = tminus_value;		
3522  018c ce0042        	ldw	x,_tminus_value+2
3523  018f cf003e        	ldw	_pre_tminus_value+2,x
3524  0192 ce0040        	ldw	x,_tminus_value
3525  0195 cf003c        	ldw	_pre_tminus_value,x
3526                     ; 199 				chose_form(form_status);
3528  0198 ce0052        	ldw	x,_form_status
3529  019b cd0e28        	call	_chose_form
3531                     ; 200 				print_freq(frequency_value, form_status);
3533  019e ce0052        	ldw	x,_form_status
3534  01a1 89            	pushw	x
3535  01a2 ce002c        	ldw	x,_frequency_value+2
3536  01a5 89            	pushw	x
3537  01a6 ce002a        	ldw	x,_frequency_value
3538  01a9 89            	pushw	x
3539  01aa cd0fd8        	call	_print_freq
3541  01ad 5b06          	addw	sp,#6
3542                     ; 201 				print_ampl(amplitude_value_10);
3544  01af ce004e        	ldw	x,_amplitude_value_10
3545  01b2 cd109d        	call	_print_ampl
3547                     ; 202 				print_tplus(tplus_value, form_status);
3549  01b5 ce0052        	ldw	x,_form_status
3550  01b8 89            	pushw	x
3551  01b9 ce004a        	ldw	x,_tplus_value+2
3552  01bc 89            	pushw	x
3553  01bd ce0048        	ldw	x,_tplus_value
3554  01c0 89            	pushw	x
3555  01c1 cd111d        	call	_print_tplus
3557  01c4 5b06          	addw	sp,#6
3558                     ; 203 				print_tminus(tminus_value, form_status);
3560  01c6 ce0052        	ldw	x,_form_status
3561  01c9 89            	pushw	x
3562  01ca ce0042        	ldw	x,_tminus_value+2
3563  01cd 89            	pushw	x
3564  01ce ce0040        	ldw	x,_tminus_value
3565  01d1 89            	pushw	x
3566  01d2 cd11e5        	call	_print_tminus
3568  01d5 5b06          	addw	sp,#6
3569  01d7               L1102:
3570                     ; 186 		while(start_stop_flag == 0){
3572  01d7 ce002e        	ldw	x,_start_stop_flag
3573  01da 2603          	jrne	L64
3574  01dc cc00cd        	jp	L5002
3575  01df               L64:
3577  01df ac9a069a      	jpf	L1202
3578  01e3               L7102:
3579                     ; 207 			PE_CR2 = 0x0F;
3581  01e3 350f5018      	mov	_PE_CR2,#15
3582                     ; 208 			print_start_stop(start_stop_flag);
3584  01e7 ce002e        	ldw	x,_start_stop_flag
3585  01ea cd12ad        	call	_print_start_stop
3588  01ed ac920692      	jpf	L7202
3589  01f1               L5202:
3590                     ; 210 				if(form_status == 2){
3592  01f1 ce0052        	ldw	x,_form_status
3593  01f4 a30002        	cpw	x,#2
3594  01f7 2703          	jreq	L05
3595  01f9 cc02d2        	jp	L3302
3596  01fc               L05:
3597                     ; 211 					if((tplus_value == 0) & (tminus_value != 0)){
3599  01fc ae0048        	ldw	x,#_tplus_value
3600  01ff cd0000        	call	c_lzmp
3602  0202 2703          	jreq	L25
3603  0204 cc031c        	jp	L5302
3604  0207               L25:
3606  0207 ae0040        	ldw	x,#_tminus_value
3607  020a cd0000        	call	c_lzmp
3609  020d 2603          	jrne	L45
3610  020f cc031c        	jp	L5302
3611  0212               L45:
3612                     ; 212 						if(tminus_value<810){
3614  0212 9c            	rvf
3615  0213 ae0040        	ldw	x,#_tminus_value
3616  0216 cd0000        	call	c_ltor
3618  0219 ae0000        	ldw	x,#L23
3619  021c cd0000        	call	c_lcmp
3621  021f 2e1e          	jrsge	L7302
3622                     ; 213 							triang_pause = ((1000000/frequency_value)- 810);
3624  0221 ae4240        	ldw	x,#16960
3625  0224 bf02          	ldw	c_lreg+2,x
3626  0226 ae000f        	ldw	x,#15
3627  0229 bf00          	ldw	c_lreg,x
3628  022b ae002a        	ldw	x,#_frequency_value
3629  022e cd0000        	call	c_ldiv
3631  0231 ae0000        	ldw	x,#L23
3632  0234 cd0000        	call	c_lsub
3634  0237 ae0016        	ldw	x,#_triang_pause
3635  023a cd0000        	call	c_rtol
3638  023d 201c          	jra	L1402
3639  023f               L7302:
3640                     ; 216 							triang_pause = ((1000000/frequency_value)- tminus_value);
3642  023f ae4240        	ldw	x,#16960
3643  0242 bf02          	ldw	c_lreg+2,x
3644  0244 ae000f        	ldw	x,#15
3645  0247 bf00          	ldw	c_lreg,x
3646  0249 ae002a        	ldw	x,#_frequency_value
3647  024c cd0000        	call	c_ldiv
3649  024f ae0040        	ldw	x,#_tminus_value
3650  0252 cd0000        	call	c_lsub
3652  0255 ae0016        	ldw	x,#_triang_pause
3653  0258 cd0000        	call	c_rtol
3655  025b               L1402:
3656                     ; 218 						for(triang_counter = (amplitude_value_10*81); triang_counter>-1; triang_counter-=((amplitude_value_10*81)/30)){
3658  025b ce004e        	ldw	x,_amplitude_value_10
3659  025e a651          	ld	a,#81
3660  0260 cd0000        	call	c_bmulx
3662  0263 cf0006        	ldw	_triang_counter,x
3664  0266 2038          	jra	L7402
3665  0268               L3402:
3666                     ; 219 							dac_write_raw(triang_counter);
3668  0268 ce0006        	ldw	x,_triang_counter
3669  026b cd1334        	call	_dac_write_raw
3671                     ; 220 							delay_us((tminus_value-810)/30);
3673  026e ae0040        	ldw	x,#_tminus_value
3674  0271 cd0000        	call	c_ltor
3676  0274 ae0000        	ldw	x,#L23
3677  0277 cd0000        	call	c_lsub
3679  027a ae0004        	ldw	x,#L43
3680  027d cd0000        	call	c_ldiv
3682  0280 be02          	ldw	x,c_lreg+2
3683  0282 89            	pushw	x
3684  0283 be00          	ldw	x,c_lreg
3685  0285 89            	pushw	x
3686  0286 cd1362        	call	_delay_us
3688  0289 5b04          	addw	sp,#4
3689                     ; 218 						for(triang_counter = (amplitude_value_10*81); triang_counter>-1; triang_counter-=((amplitude_value_10*81)/30)){
3691  028b ce004e        	ldw	x,_amplitude_value_10
3692  028e a651          	ld	a,#81
3693  0290 cd0000        	call	c_bmulx
3695  0293 a61e          	ld	a,#30
3696  0295 cd0000        	call	c_sdivx
3698  0298 72b00006      	subw	x,_triang_counter
3699  029c 50            	negw	x
3700  029d cf0006        	ldw	_triang_counter,x
3701  02a0               L7402:
3704  02a0 9c            	rvf
3705  02a1 ce0006        	ldw	x,_triang_counter
3706  02a4 2ec2          	jrsge	L3402
3707                     ; 222 						dac_write_raw(0);
3709  02a6 5f            	clrw	x
3710  02a7 cd1334        	call	_dac_write_raw
3712                     ; 223 						if(triang_pause>65534){
3714  02aa 9c            	rvf
3715  02ab ae0016        	ldw	x,#_triang_pause
3716  02ae cd0000        	call	c_ltor
3718  02b1 ae0008        	ldw	x,#L63
3719  02b4 cd0000        	call	c_lcmp
3721  02b7 2f0c          	jrslt	L3502
3722                     ; 224 							triang_pause = 65534;
3724  02b9 aefffe        	ldw	x,#65534
3725  02bc cf0018        	ldw	_triang_pause+2,x
3726  02bf ae0000        	ldw	x,#0
3727  02c2 cf0016        	ldw	_triang_pause,x
3728  02c5               L3502:
3729                     ; 226 						delay_us(triang_pause);
3731  02c5 ce0018        	ldw	x,_triang_pause+2
3732  02c8 89            	pushw	x
3733  02c9 ce0016        	ldw	x,_triang_pause
3734  02cc 89            	pushw	x
3735  02cd cd1362        	call	_delay_us
3737  02d0 5b04          	addw	sp,#4
3739  02d2               L3302:
3740                     ; 274 				if(form_status == 1){
3742  02d2 ce0052        	ldw	x,_form_status
3743  02d5 a30001        	cpw	x,#1
3744  02d8 2703          	jreq	L65
3745  02da cc05a8        	jp	L3312
3746  02dd               L65:
3747                     ; 275 					dac_write_raw(amplitude_value_10*81);
3749  02dd ce004e        	ldw	x,_amplitude_value_10
3750  02e0 a651          	ld	a,#81
3751  02e2 cd0000        	call	c_bmulx
3753  02e5 cd1334        	call	_dac_write_raw
3755                     ; 276 					delay_us(tplus_value-15);
3757  02e8 ae0048        	ldw	x,#_tplus_value
3758  02eb cd0000        	call	c_ltor
3760  02ee a60f          	ld	a,#15
3761  02f0 cd0000        	call	c_lsbc
3763  02f3 be02          	ldw	x,c_lreg+2
3764  02f5 89            	pushw	x
3765  02f6 be00          	ldw	x,c_lreg
3766  02f8 89            	pushw	x
3767  02f9 cd1362        	call	_delay_us
3769  02fc 5b04          	addw	sp,#4
3770                     ; 277 					dac_write_raw(0);
3772  02fe 5f            	clrw	x
3773  02ff cd1334        	call	_dac_write_raw
3775                     ; 278 					delay_us(tminus_value-15);
3777  0302 ae0040        	ldw	x,#_tminus_value
3778  0305 cd0000        	call	c_ltor
3780  0308 a60f          	ld	a,#15
3781  030a cd0000        	call	c_lsbc
3783  030d be02          	ldw	x,c_lreg+2
3784  030f 89            	pushw	x
3785  0310 be00          	ldw	x,c_lreg
3786  0312 89            	pushw	x
3787  0313 cd1362        	call	_delay_us
3789  0316 5b04          	addw	sp,#4
3790  0318 aca805a8      	jpf	L3312
3791  031c               L5302:
3792                     ; 228 					else if((tplus_value != 0) & (tminus_value == 0)){
3794  031c ae0048        	ldw	x,#_tplus_value
3795  031f cd0000        	call	c_lzmp
3797  0322 2603          	jrne	L06
3798  0324 cc03f6        	jp	L7502
3799  0327               L06:
3801  0327 ae0040        	ldw	x,#_tminus_value
3802  032a cd0000        	call	c_lzmp
3804  032d 2703          	jreq	L26
3805  032f cc03f6        	jp	L7502
3806  0332               L26:
3807                     ; 229 						if(tplus_value<810){
3809  0332 9c            	rvf
3810  0333 ae0048        	ldw	x,#_tplus_value
3811  0336 cd0000        	call	c_ltor
3813  0339 ae0000        	ldw	x,#L23
3814  033c cd0000        	call	c_lcmp
3816  033f 2e1e          	jrsge	L1602
3817                     ; 230 							triang_pause = ((1000000/frequency_value)- 810);
3819  0341 ae4240        	ldw	x,#16960
3820  0344 bf02          	ldw	c_lreg+2,x
3821  0346 ae000f        	ldw	x,#15
3822  0349 bf00          	ldw	c_lreg,x
3823  034b ae002a        	ldw	x,#_frequency_value
3824  034e cd0000        	call	c_ldiv
3826  0351 ae0000        	ldw	x,#L23
3827  0354 cd0000        	call	c_lsub
3829  0357 ae0016        	ldw	x,#_triang_pause
3830  035a cd0000        	call	c_rtol
3833  035d 201c          	jra	L3602
3834  035f               L1602:
3835                     ; 233 							triang_pause = ((1000000/frequency_value)- tplus_value);
3837  035f ae4240        	ldw	x,#16960
3838  0362 bf02          	ldw	c_lreg+2,x
3839  0364 ae000f        	ldw	x,#15
3840  0367 bf00          	ldw	c_lreg,x
3841  0369 ae002a        	ldw	x,#_frequency_value
3842  036c cd0000        	call	c_ldiv
3844  036f ae0048        	ldw	x,#_tplus_value
3845  0372 cd0000        	call	c_lsub
3847  0375 ae0016        	ldw	x,#_triang_pause
3848  0378 cd0000        	call	c_rtol
3850  037b               L3602:
3851                     ; 236 						for(triang_counter = 0; triang_counter<(amplitude_value_10*81); triang_counter+=((amplitude_value_10*81)/30)){
3853  037b 5f            	clrw	x
3854  037c cf0006        	ldw	_triang_counter,x
3856  037f 2037          	jra	L1702
3857  0381               L5602:
3858                     ; 237 							dac_write_raw(triang_counter);
3860  0381 ce0006        	ldw	x,_triang_counter
3861  0384 cd1334        	call	_dac_write_raw
3863                     ; 238 							delay_us((tplus_value-810)/30);
3865  0387 ae0048        	ldw	x,#_tplus_value
3866  038a cd0000        	call	c_ltor
3868  038d ae0000        	ldw	x,#L23
3869  0390 cd0000        	call	c_lsub
3871  0393 ae0004        	ldw	x,#L43
3872  0396 cd0000        	call	c_ldiv
3874  0399 be02          	ldw	x,c_lreg+2
3875  039b 89            	pushw	x
3876  039c be00          	ldw	x,c_lreg
3877  039e 89            	pushw	x
3878  039f cd1362        	call	_delay_us
3880  03a2 5b04          	addw	sp,#4
3881                     ; 236 						for(triang_counter = 0; triang_counter<(amplitude_value_10*81); triang_counter+=((amplitude_value_10*81)/30)){
3883  03a4 ce004e        	ldw	x,_amplitude_value_10
3884  03a7 a651          	ld	a,#81
3885  03a9 cd0000        	call	c_bmulx
3887  03ac a61e          	ld	a,#30
3888  03ae cd0000        	call	c_sdivx
3890  03b1 72bb0006      	addw	x,_triang_counter
3891  03b5 cf0006        	ldw	_triang_counter,x
3892  03b8               L1702:
3895  03b8 9c            	rvf
3896  03b9 ce004e        	ldw	x,_amplitude_value_10
3897  03bc a651          	ld	a,#81
3898  03be cd0000        	call	c_bmulx
3900  03c1 c30006        	cpw	x,_triang_counter
3901  03c4 2cbb          	jrsgt	L5602
3902                     ; 240 						dac_write_raw(0);
3904  03c6 5f            	clrw	x
3905  03c7 cd1334        	call	_dac_write_raw
3907                     ; 241 						if(triang_pause>65534){
3909  03ca 9c            	rvf
3910  03cb ae0016        	ldw	x,#_triang_pause
3911  03ce cd0000        	call	c_ltor
3913  03d1 ae0008        	ldw	x,#L63
3914  03d4 cd0000        	call	c_lcmp
3916  03d7 2f0c          	jrslt	L5702
3917                     ; 242 							triang_pause = 65534;
3919  03d9 aefffe        	ldw	x,#65534
3920  03dc cf0018        	ldw	_triang_pause+2,x
3921  03df ae0000        	ldw	x,#0
3922  03e2 cf0016        	ldw	_triang_pause,x
3923  03e5               L5702:
3924                     ; 244 						delay_us(triang_pause);
3926  03e5 ce0018        	ldw	x,_triang_pause+2
3927  03e8 89            	pushw	x
3928  03e9 ce0016        	ldw	x,_triang_pause
3929  03ec 89            	pushw	x
3930  03ed cd1362        	call	_delay_us
3932  03f0 5b04          	addw	sp,#4
3934  03f2 acd202d2      	jpf	L3302
3935  03f6               L7502:
3936                     ; 247 						if((tminus_value == 0) & (tplus_value == 0)){
3938  03f6 ae0040        	ldw	x,#_tminus_value
3939  03f9 cd0000        	call	c_lzmp
3941  03fc 2624          	jrne	L1012
3943  03fe ae0048        	ldw	x,#_tplus_value
3944  0401 cd0000        	call	c_lzmp
3946  0404 261c          	jrne	L1012
3947                     ; 248 							triang_pause = ((1000000/frequency_value) - 1620);
3949  0406 ae4240        	ldw	x,#16960
3950  0409 bf02          	ldw	c_lreg+2,x
3951  040b ae000f        	ldw	x,#15
3952  040e bf00          	ldw	c_lreg,x
3953  0410 ae002a        	ldw	x,#_frequency_value
3954  0413 cd0000        	call	c_ldiv
3956  0416 ae000c        	ldw	x,#L04
3957  0419 cd0000        	call	c_lsub
3959  041c ae0016        	ldw	x,#_triang_pause
3960  041f cd0000        	call	c_rtol
3962  0422               L1012:
3963                     ; 250 						if((tminus_value < 810) & (tplus_value > 810)){
3965  0422 9c            	rvf
3966  0423 ae0040        	ldw	x,#_tminus_value
3967  0426 cd0000        	call	c_ltor
3969  0429 ae0000        	ldw	x,#L23
3970  042c cd0000        	call	c_lcmp
3972  042f 2e31          	jrsge	L3012
3974  0431 9c            	rvf
3975  0432 ae0048        	ldw	x,#_tplus_value
3976  0435 cd0000        	call	c_ltor
3978  0438 ae0010        	ldw	x,#L24
3979  043b cd0000        	call	c_lcmp
3981  043e 2f22          	jrslt	L3012
3982                     ; 251 							triang_pause = ((1000000/frequency_value) - 810 - tplus_value);
3984  0440 ae4240        	ldw	x,#16960
3985  0443 bf02          	ldw	c_lreg+2,x
3986  0445 ae000f        	ldw	x,#15
3987  0448 bf00          	ldw	c_lreg,x
3988  044a ae002a        	ldw	x,#_frequency_value
3989  044d cd0000        	call	c_ldiv
3991  0450 ae0000        	ldw	x,#L23
3992  0453 cd0000        	call	c_lsub
3994  0456 ae0048        	ldw	x,#_tplus_value
3995  0459 cd0000        	call	c_lsub
3997  045c ae0016        	ldw	x,#_triang_pause
3998  045f cd0000        	call	c_rtol
4000  0462               L3012:
4001                     ; 253 						if((tplus_value < 810) & (tminus_value > 810)){
4003  0462 9c            	rvf
4004  0463 ae0048        	ldw	x,#_tplus_value
4005  0466 cd0000        	call	c_ltor
4007  0469 ae0000        	ldw	x,#L23
4008  046c cd0000        	call	c_lcmp
4010  046f 2e31          	jrsge	L5012
4012  0471 9c            	rvf
4013  0472 ae0040        	ldw	x,#_tminus_value
4014  0475 cd0000        	call	c_ltor
4016  0478 ae0010        	ldw	x,#L24
4017  047b cd0000        	call	c_lcmp
4019  047e 2f22          	jrslt	L5012
4020                     ; 254 							triang_pause = ((1000000/frequency_value) - 810 - tminus_value);
4022  0480 ae4240        	ldw	x,#16960
4023  0483 bf02          	ldw	c_lreg+2,x
4024  0485 ae000f        	ldw	x,#15
4025  0488 bf00          	ldw	c_lreg,x
4026  048a ae002a        	ldw	x,#_frequency_value
4027  048d cd0000        	call	c_ldiv
4029  0490 ae0000        	ldw	x,#L23
4030  0493 cd0000        	call	c_lsub
4032  0496 ae0040        	ldw	x,#_tminus_value
4033  0499 cd0000        	call	c_lsub
4035  049c ae0016        	ldw	x,#_triang_pause
4036  049f cd0000        	call	c_rtol
4038  04a2               L5012:
4039                     ; 256 						if((tplus_value > 810) & (tminus_value > 810)){
4041  04a2 9c            	rvf
4042  04a3 ae0048        	ldw	x,#_tplus_value
4043  04a6 cd0000        	call	c_ltor
4045  04a9 ae0010        	ldw	x,#L24
4046  04ac cd0000        	call	c_lcmp
4048  04af 2f31          	jrslt	L7012
4050  04b1 9c            	rvf
4051  04b2 ae0040        	ldw	x,#_tminus_value
4052  04b5 cd0000        	call	c_ltor
4054  04b8 ae0010        	ldw	x,#L24
4055  04bb cd0000        	call	c_lcmp
4057  04be 2f22          	jrslt	L7012
4058                     ; 257 							triang_pause = ((1000000/frequency_value) - tplus_value - tminus_value);
4060  04c0 ae4240        	ldw	x,#16960
4061  04c3 bf02          	ldw	c_lreg+2,x
4062  04c5 ae000f        	ldw	x,#15
4063  04c8 bf00          	ldw	c_lreg,x
4064  04ca ae002a        	ldw	x,#_frequency_value
4065  04cd cd0000        	call	c_ldiv
4067  04d0 ae0048        	ldw	x,#_tplus_value
4068  04d3 cd0000        	call	c_lsub
4070  04d6 ae0040        	ldw	x,#_tminus_value
4071  04d9 cd0000        	call	c_lsub
4073  04dc ae0016        	ldw	x,#_triang_pause
4074  04df cd0000        	call	c_rtol
4076  04e2               L7012:
4077                     ; 259 						for(triang_counter = 0; triang_counter<(amplitude_value_10*81); triang_counter+=((amplitude_value_10*81)/30)){
4079  04e2 5f            	clrw	x
4080  04e3 cf0006        	ldw	_triang_counter,x
4082  04e6 2037          	jra	L5112
4083  04e8               L1112:
4084                     ; 260 							dac_write_raw(triang_counter);
4086  04e8 ce0006        	ldw	x,_triang_counter
4087  04eb cd1334        	call	_dac_write_raw
4089                     ; 261 							delay_us((tplus_value-810)/30);
4091  04ee ae0048        	ldw	x,#_tplus_value
4092  04f1 cd0000        	call	c_ltor
4094  04f4 ae0000        	ldw	x,#L23
4095  04f7 cd0000        	call	c_lsub
4097  04fa ae0004        	ldw	x,#L43
4098  04fd cd0000        	call	c_ldiv
4100  0500 be02          	ldw	x,c_lreg+2
4101  0502 89            	pushw	x
4102  0503 be00          	ldw	x,c_lreg
4103  0505 89            	pushw	x
4104  0506 cd1362        	call	_delay_us
4106  0509 5b04          	addw	sp,#4
4107                     ; 259 						for(triang_counter = 0; triang_counter<(amplitude_value_10*81); triang_counter+=((amplitude_value_10*81)/30)){
4109  050b ce004e        	ldw	x,_amplitude_value_10
4110  050e a651          	ld	a,#81
4111  0510 cd0000        	call	c_bmulx
4113  0513 a61e          	ld	a,#30
4114  0515 cd0000        	call	c_sdivx
4116  0518 72bb0006      	addw	x,_triang_counter
4117  051c cf0006        	ldw	_triang_counter,x
4118  051f               L5112:
4121  051f 9c            	rvf
4122  0520 ce004e        	ldw	x,_amplitude_value_10
4123  0523 a651          	ld	a,#81
4124  0525 cd0000        	call	c_bmulx
4126  0528 c30006        	cpw	x,_triang_counter
4127  052b 2cbb          	jrsgt	L1112
4128                     ; 263 						for(triang_counter = (amplitude_value_10*81); triang_counter>-1; triang_counter-=((amplitude_value_10*81)/30)){
4130  052d ce004e        	ldw	x,_amplitude_value_10
4131  0530 a651          	ld	a,#81
4132  0532 cd0000        	call	c_bmulx
4134  0535 cf0006        	ldw	_triang_counter,x
4136  0538 2038          	jra	L5212
4137  053a               L1212:
4138                     ; 264 							dac_write_raw(triang_counter);
4140  053a ce0006        	ldw	x,_triang_counter
4141  053d cd1334        	call	_dac_write_raw
4143                     ; 265 							delay_us((tminus_value-810)/30);
4145  0540 ae0040        	ldw	x,#_tminus_value
4146  0543 cd0000        	call	c_ltor
4148  0546 ae0000        	ldw	x,#L23
4149  0549 cd0000        	call	c_lsub
4151  054c ae0004        	ldw	x,#L43
4152  054f cd0000        	call	c_ldiv
4154  0552 be02          	ldw	x,c_lreg+2
4155  0554 89            	pushw	x
4156  0555 be00          	ldw	x,c_lreg
4157  0557 89            	pushw	x
4158  0558 cd1362        	call	_delay_us
4160  055b 5b04          	addw	sp,#4
4161                     ; 263 						for(triang_counter = (amplitude_value_10*81); triang_counter>-1; triang_counter-=((amplitude_value_10*81)/30)){
4163  055d ce004e        	ldw	x,_amplitude_value_10
4164  0560 a651          	ld	a,#81
4165  0562 cd0000        	call	c_bmulx
4167  0565 a61e          	ld	a,#30
4168  0567 cd0000        	call	c_sdivx
4170  056a 72b00006      	subw	x,_triang_counter
4171  056e 50            	negw	x
4172  056f cf0006        	ldw	_triang_counter,x
4173  0572               L5212:
4176  0572 9c            	rvf
4177  0573 ce0006        	ldw	x,_triang_counter
4178  0576 2ec2          	jrsge	L1212
4179                     ; 267 						dac_write_raw(0);
4181  0578 5f            	clrw	x
4182  0579 cd1334        	call	_dac_write_raw
4184                     ; 268 						if(triang_pause>65534){
4186  057c 9c            	rvf
4187  057d ae0016        	ldw	x,#_triang_pause
4188  0580 cd0000        	call	c_ltor
4190  0583 ae0008        	ldw	x,#L63
4191  0586 cd0000        	call	c_lcmp
4193  0589 2f0c          	jrslt	L1312
4194                     ; 269 							triang_pause = 65534;
4196  058b aefffe        	ldw	x,#65534
4197  058e cf0018        	ldw	_triang_pause+2,x
4198  0591 ae0000        	ldw	x,#0
4199  0594 cf0016        	ldw	_triang_pause,x
4200  0597               L1312:
4201                     ; 271 						delay_us(triang_pause);
4203  0597 ce0018        	ldw	x,_triang_pause+2
4204  059a 89            	pushw	x
4205  059b ce0016        	ldw	x,_triang_pause
4206  059e 89            	pushw	x
4207  059f cd1362        	call	_delay_us
4209  05a2 5b04          	addw	sp,#4
4210  05a4 acd202d2      	jpf	L3302
4211  05a8               L3312:
4212                     ; 280 				if(form_status == 0){
4214  05a8 ce0052        	ldw	x,_form_status
4215  05ab 2703          	jreq	L46
4216  05ad cc0692        	jp	L7202
4217  05b0               L46:
4218                     ; 281 					if(frequency_value> 665){
4220  05b0 9c            	rvf
4221  05b1 ae002a        	ldw	x,#_frequency_value
4222  05b4 cd0000        	call	c_ltor
4224  05b7 ae0014        	ldw	x,#L44
4225  05ba cd0000        	call	c_lcmp
4227  05bd 2f53          	jrslt	L7312
4228                     ; 283 						for(sin_counter = 0; sin_counter<60; sin_counter++){
4230  05bf 5f            	clrw	x
4231  05c0 cf0004        	ldw	_sin_counter,x
4232  05c3               L1412:
4233                     ; 284 							dac_sin_value = (sin_arr[sin_counter] * amplitude_value_10)/30;
4235  05c3 ce0004        	ldw	x,_sin_counter
4236  05c6 58            	sllw	x
4237  05c7 de021e        	ldw	x,(_sin_arr,x)
4238  05ca 90ce004e      	ldw	y,_amplitude_value_10
4239  05ce cd0000        	call	c_imul
4241  05d1 a61e          	ld	a,#30
4242  05d3 cd0000        	call	c_sdivx
4244  05d6 cd0000        	call	c_itolx
4246  05d9 ae0000        	ldw	x,#_dac_sin_value
4247  05dc cd0000        	call	c_rtol
4249                     ; 285 							dac_write_raw(dac_sin_value*81);
4251  05df ae0000        	ldw	x,#_dac_sin_value
4252  05e2 cd0000        	call	c_ltor
4254  05e5 a651          	ld	a,#81
4255  05e7 cd0000        	call	c_smul
4257  05ea be02          	ldw	x,c_lreg+2
4258  05ec cd1334        	call	_dac_write_raw
4260                     ; 286 							delay_us(0);
4262  05ef ae0000        	ldw	x,#0
4263  05f2 89            	pushw	x
4264  05f3 ae0000        	ldw	x,#0
4265  05f6 89            	pushw	x
4266  05f7 cd1362        	call	_delay_us
4268  05fa 5b04          	addw	sp,#4
4269                     ; 283 						for(sin_counter = 0; sin_counter<60; sin_counter++){
4271  05fc ce0004        	ldw	x,_sin_counter
4272  05ff 1c0001        	addw	x,#1
4273  0602 cf0004        	ldw	_sin_counter,x
4276  0605 9c            	rvf
4277  0606 ce0004        	ldw	x,_sin_counter
4278  0609 a3003c        	cpw	x,#60
4279  060c 2fb5          	jrslt	L1412
4281  060e ac920692      	jpf	L7202
4282  0612               L7312:
4283                     ; 291 						sin_pause = ((16666/(frequency_value+1))-28);
4285  0612 ae002a        	ldw	x,#_frequency_value
4286  0615 cd0000        	call	c_ltor
4288  0618 a601          	ld	a,#1
4289  061a cd0000        	call	c_ladc
4291  061d 96            	ldw	x,sp
4292  061e 1c0005        	addw	x,#OFST-3
4293  0621 cd0000        	call	c_rtol
4296  0624 ae411a        	ldw	x,#16666
4297  0627 bf02          	ldw	c_lreg+2,x
4298  0629 ae0000        	ldw	x,#0
4299  062c bf00          	ldw	c_lreg,x
4300  062e 96            	ldw	x,sp
4301  062f 1c0005        	addw	x,#OFST-3
4302  0632 cd0000        	call	c_ldiv
4304  0635 a61c          	ld	a,#28
4305  0637 cd0000        	call	c_lsbc
4307  063a be02          	ldw	x,c_lreg+2
4308  063c cf0014        	ldw	_sin_pause,x
4309                     ; 292 						for(sin_counter = 0; sin_counter<60; sin_counter++){
4311  063f 5f            	clrw	x
4312  0640 cf0004        	ldw	_sin_counter,x
4313  0643               L1512:
4314                     ; 293 							dac_sin_value = (sin_arr[sin_counter] * amplitude_value_10)/30;
4316  0643 ce0004        	ldw	x,_sin_counter
4317  0646 58            	sllw	x
4318  0647 de021e        	ldw	x,(_sin_arr,x)
4319  064a 90ce004e      	ldw	y,_amplitude_value_10
4320  064e cd0000        	call	c_imul
4322  0651 a61e          	ld	a,#30
4323  0653 cd0000        	call	c_sdivx
4325  0656 cd0000        	call	c_itolx
4327  0659 ae0000        	ldw	x,#_dac_sin_value
4328  065c cd0000        	call	c_rtol
4330                     ; 294 							dac_write_raw(dac_sin_value*81);
4332  065f ae0000        	ldw	x,#_dac_sin_value
4333  0662 cd0000        	call	c_ltor
4335  0665 a651          	ld	a,#81
4336  0667 cd0000        	call	c_smul
4338  066a be02          	ldw	x,c_lreg+2
4339  066c cd1334        	call	_dac_write_raw
4341                     ; 295 							delay_us(sin_pause);
4343  066f ce0014        	ldw	x,_sin_pause
4344  0672 cd0000        	call	c_itolx
4346  0675 be02          	ldw	x,c_lreg+2
4347  0677 89            	pushw	x
4348  0678 be00          	ldw	x,c_lreg
4349  067a 89            	pushw	x
4350  067b cd1362        	call	_delay_us
4352  067e 5b04          	addw	sp,#4
4353                     ; 292 						for(sin_counter = 0; sin_counter<60; sin_counter++){
4355  0680 ce0004        	ldw	x,_sin_counter
4356  0683 1c0001        	addw	x,#1
4357  0686 cf0004        	ldw	_sin_counter,x
4360  0689 9c            	rvf
4361  068a ce0004        	ldw	x,_sin_counter
4362  068d a3003c        	cpw	x,#60
4363  0690 2fb1          	jrslt	L1512
4364  0692               L7202:
4365                     ; 209 			while(start_stop_flag){
4367  0692 ce002e        	ldw	x,_start_stop_flag
4368  0695 2703          	jreq	L66
4369  0697 cc01f1        	jp	L5202
4370  069a               L66:
4371  069a               L1202:
4372                     ; 206 		while(start_stop_flag == 1){
4374  069a ce002e        	ldw	x,_start_stop_flag
4375  069d a30001        	cpw	x,#1
4376  06a0 2603          	jrne	L07
4377  06a2 cc01e3        	jp	L7102
4378  06a5               L07:
4380  06a5 acc500c5      	jpf	L1002
4420                     	switch	.const
4421  0018               L011:
4422  0018 000f4240      	dc.l	1000000
4423                     ; 305 @far @interrupt void EXTI_PortE (void)
4423                     ; 306 {
4424                     	scross	on
4425                     	switch	.text
4426  06a9               f_EXTI_PortE:
4428  06a9 8a            	push	cc
4429  06aa 84            	pop	a
4430  06ab a4bf          	and	a,#191
4431  06ad 88            	push	a
4432  06ae 86            	pop	cc
4433       00000004      OFST:	set	4
4434  06af be00          	ldw	x,c_x
4435  06b1 89            	pushw	x
4436  06b2 be02          	ldw	x,c_lreg+2
4437  06b4 89            	pushw	x
4438  06b5 be00          	ldw	x,c_lreg
4439  06b7 89            	pushw	x
4440  06b8 5204          	subw	sp,#4
4443                     ; 307 	PE_CR2 = 0x00;
4445  06ba 725f5018      	clr	_PE_CR2
4446                     ; 308 	number_button = 0;
4448  06be 5f            	clrw	x
4449  06bf cf003a        	ldw	_number_button,x
4450                     ; 309 	raw_number_button = PE_IDR;
4452  06c2 c65015        	ld	a,_PE_IDR
4453  06c5 5f            	clrw	x
4454  06c6 97            	ld	xl,a
4455  06c7 cf0038        	ldw	_raw_number_button,x
4456                     ; 310 	raw_number_button ^= 0x0F;
4458  06ca c60039        	ld	a,_raw_number_button+1
4459  06cd a80f          	xor	a,#15
4460  06cf c70039        	ld	_raw_number_button+1,a
4461                     ; 311 	for (counter_raws = 0; counter_raws < 4; counter_raws++){
4463  06d2 5f            	clrw	x
4464  06d3 cf0036        	ldw	_counter_raws,x
4465  06d6               L7612:
4466                     ; 312 		raw_number_button /= 2;
4468  06d6 ce0038        	ldw	x,_raw_number_button
4469  06d9 a602          	ld	a,#2
4470  06db cd0000        	call	c_sdivx
4472  06de cf0038        	ldw	_raw_number_button,x
4473                     ; 313 		if (raw_number_button == 0){
4475  06e1 ce0038        	ldw	x,_raw_number_button
4476  06e4 2712          	jreq	L3712
4477                     ; 314 		break;
4479                     ; 311 	for (counter_raws = 0; counter_raws < 4; counter_raws++){
4481  06e6 ce0036        	ldw	x,_counter_raws
4482  06e9 1c0001        	addw	x,#1
4483  06ec cf0036        	ldw	_counter_raws,x
4486  06ef 9c            	rvf
4487  06f0 ce0036        	ldw	x,_counter_raws
4488  06f3 a30004        	cpw	x,#4
4489  06f6 2fde          	jrslt	L7612
4490  06f8               L3712:
4491                     ; 317 	raw_number_button = 0x10;
4493  06f8 ae0010        	ldw	x,#16
4494  06fb cf0038        	ldw	_raw_number_button,x
4495                     ; 318 	for(counter_columns = 0; counter_columns<4; counter_columns++){
4497  06fe 5f            	clrw	x
4498  06ff cf0034        	ldw	_counter_columns,x
4499  0702               L7712:
4500                     ; 319 		PE_ODR = raw_number_button;
4502  0702 5500395014    	mov	_PE_ODR,_raw_number_button+1
4503                     ; 320 		raw_number_button = raw_number_button*2;
4505  0707 72580039      	sll	_raw_number_button+1
4506  070b 72590038      	rlc	_raw_number_button
4507                     ; 321 		is_it_this_button = ((~PE_IDR<<4)&0xFF)>>4;
4509  070f c65015        	ld	a,_PE_IDR
4510  0712 43            	cpl	a
4511  0713 97            	ld	xl,a
4512  0714 a610          	ld	a,#16
4513  0716 42            	mul	x,a
4514  0717 9f            	ld	a,xl
4515  0718 a4ff          	and	a,#255
4516  071a 4e            	swap	a
4517  071b a40f          	and	a,#15
4518  071d 5f            	clrw	x
4519  071e 97            	ld	xl,a
4520  071f cf0032        	ldw	_is_it_this_button,x
4521                     ; 322 		if (is_it_this_button == 0){
4523  0722 ce0032        	ldw	x,_is_it_this_button
4524  0725 2712          	jreq	L3022
4525                     ; 323 		break;
4527                     ; 318 	for(counter_columns = 0; counter_columns<4; counter_columns++){
4529  0727 ce0034        	ldw	x,_counter_columns
4530  072a 1c0001        	addw	x,#1
4531  072d cf0034        	ldw	_counter_columns,x
4534  0730 9c            	rvf
4535  0731 ce0034        	ldw	x,_counter_columns
4536  0734 a30004        	cpw	x,#4
4537  0737 2fc9          	jrslt	L7712
4538  0739               L3022:
4539                     ; 326 	number_button = counter_raws*4 + counter_columns;
4541  0739 ce0036        	ldw	x,_counter_raws
4542  073c 58            	sllw	x
4543  073d 58            	sllw	x
4544  073e 72bb0034      	addw	x,_counter_columns
4545  0742 cf003a        	ldw	_number_button,x
4546                     ; 328 	if(number_button == 12){
4548  0745 ce003a        	ldw	x,_number_button
4549  0748 a3000c        	cpw	x,#12
4550  074b 2608          	jrne	L7022
4551                     ; 329 		start_stop_flag ^=0x01; 
4553  074d c6002f        	ld	a,_start_stop_flag+1
4554  0750 a801          	xor	a,#1
4555  0752 c7002f        	ld	_start_stop_flag+1,a
4556  0755               L7022:
4557                     ; 332 	if(start_stop_flag == 0x00){
4559  0755 ce002e        	ldw	x,_start_stop_flag
4560  0758 2704          	jreq	L241
4561  075a ac140b14      	jpf	L1122
4562  075e               L241:
4563                     ; 333 		if(number_button==15){
4565  075e ce003a        	ldw	x,_number_button
4566  0761 a3000f        	cpw	x,#15
4567  0764 2608          	jrne	L3122
4568                     ; 334 			left_right_menue_flag ^=0x01;
4570  0766 c60031        	ld	a,_left_right_menue_flag+1
4571  0769 a801          	xor	a,#1
4572  076b c70031        	ld	_left_right_menue_flag+1,a
4573  076e               L3122:
4574                     ; 336 		if (left_right_menue_flag == 0){
4576  076e ce0030        	ldw	x,_left_right_menue_flag
4577  0771 2624          	jrne	L5122
4578                     ; 337 			if(number_button==11){
4580  0773 ce003a        	ldw	x,_number_button
4581  0776 a3000b        	cpw	x,#11
4582  0779 261c          	jrne	L5122
4583                     ; 338 				pre_cursor = cursor;
4585  077b ce0056        	ldw	x,_cursor
4586  077e cf0054        	ldw	_pre_cursor,x
4587                     ; 339 				cursor++;
4589  0781 ce0056        	ldw	x,_cursor
4590  0784 1c0001        	addw	x,#1
4591  0787 cf0056        	ldw	_cursor,x
4592                     ; 340 				if(cursor > 4){
4594  078a 9c            	rvf
4595  078b ce0056        	ldw	x,_cursor
4596  078e a30005        	cpw	x,#5
4597  0791 2f04          	jrslt	L5122
4598                     ; 341 					cursor = 0;
4600  0793 5f            	clrw	x
4601  0794 cf0056        	ldw	_cursor,x
4602  0797               L5122:
4603                     ; 345 		if (left_right_menue_flag == 1){
4605  0797 ce0030        	ldw	x,_left_right_menue_flag
4606  079a a30001        	cpw	x,#1
4607  079d 2623          	jrne	L3222
4608                     ; 346 			if(cursor == 0){
4610  079f ce0056        	ldw	x,_cursor
4611  07a2 261e          	jrne	L3222
4612                     ; 347 				if(number_button==11){
4614  07a4 ce003a        	ldw	x,_number_button
4615  07a7 a3000b        	cpw	x,#11
4616  07aa 2616          	jrne	L3222
4617                     ; 348 					form_status++;
4619  07ac ce0052        	ldw	x,_form_status
4620  07af 1c0001        	addw	x,#1
4621  07b2 cf0052        	ldw	_form_status,x
4622                     ; 349 					if(form_status > 2){
4624  07b5 9c            	rvf
4625  07b6 ce0052        	ldw	x,_form_status
4626  07b9 a30003        	cpw	x,#3
4627  07bc 2f04          	jrslt	L3222
4628                     ; 350 						form_status = 0;
4630  07be 5f            	clrw	x
4631  07bf cf0052        	ldw	_form_status,x
4632  07c2               L3222:
4633                     ; 355 		if (left_right_menue_flag == 1){
4635  07c2 ce0030        	ldw	x,_left_right_menue_flag
4636  07c5 a30001        	cpw	x,#1
4637  07c8 2704          	jreq	L441
4638  07ca acc208c2      	jpf	L3322
4639  07ce               L441:
4640                     ; 356 			if((cursor == 1)&((form_status == 0)|(form_status == 2))){
4642  07ce ce0052        	ldw	x,_form_status
4643  07d1 a30002        	cpw	x,#2
4644  07d4 2605          	jrne	L47
4645  07d6 ae0001        	ldw	x,#1
4646  07d9 2001          	jra	L67
4647  07db               L47:
4648  07db 5f            	clrw	x
4649  07dc               L67:
4650  07dc 1f03          	ldw	(OFST-1,sp),x
4652  07de ce0052        	ldw	x,_form_status
4653  07e1 2605          	jrne	L001
4654  07e3 ae0001        	ldw	x,#1
4655  07e6 2001          	jra	L201
4656  07e8               L001:
4657  07e8 5f            	clrw	x
4658  07e9               L201:
4659  07e9 01            	rrwa	x,a
4660  07ea 1a04          	or	a,(OFST+0,sp)
4661  07ec 01            	rrwa	x,a
4662  07ed 1a03          	or	a,(OFST-1,sp)
4663  07ef 01            	rrwa	x,a
4664  07f0 1f01          	ldw	(OFST-3,sp),x
4666  07f2 ce0056        	ldw	x,_cursor
4667  07f5 a30001        	cpw	x,#1
4668  07f8 2605          	jrne	L401
4669  07fa ae0001        	ldw	x,#1
4670  07fd 2001          	jra	L601
4671  07ff               L401:
4672  07ff 5f            	clrw	x
4673  0800               L601:
4674  0800 01            	rrwa	x,a
4675  0801 1402          	and	a,(OFST-2,sp)
4676  0803 01            	rrwa	x,a
4677  0804 1401          	and	a,(OFST-3,sp)
4678  0806 01            	rrwa	x,a
4679  0807 a30000        	cpw	x,#0
4680  080a 2604          	jrne	L641
4681  080c acc208c2      	jpf	L3322
4682  0810               L641:
4683                     ; 357 				if(number_button == 0){
4685  0810 ce003a        	ldw	x,_number_button
4686  0813 260c          	jrne	L7322
4687                     ; 358 					frequency_value++;
4689  0815 ae002a        	ldw	x,#_frequency_value
4690  0818 a601          	ld	a,#1
4691  081a cd0000        	call	c_lgadc
4694  081d aca708a7      	jpf	L1422
4695  0821               L7322:
4696                     ; 360 				else if(number_button == 1){
4698  0821 ce003a        	ldw	x,_number_button
4699  0824 a30001        	cpw	x,#1
4700  0827 260a          	jrne	L3422
4701                     ; 361 					frequency_value += 10; 
4703  0829 ae002a        	ldw	x,#_frequency_value
4704  082c a60a          	ld	a,#10
4705  082e cd0000        	call	c_lgadc
4708  0831 2074          	jra	L1422
4709  0833               L3422:
4710                     ; 363 				else if(number_button == 2){
4712  0833 ce003a        	ldw	x,_number_button
4713  0836 a30002        	cpw	x,#2
4714  0839 260a          	jrne	L7422
4715                     ; 364 					frequency_value += 100; 
4717  083b ae002a        	ldw	x,#_frequency_value
4718  083e a664          	ld	a,#100
4719  0840 cd0000        	call	c_lgadc
4722  0843 2062          	jra	L1422
4723  0845               L7422:
4724                     ; 366 				else if(number_button == 3){
4726  0845 ce003a        	ldw	x,_number_button
4727  0848 a30003        	cpw	x,#3
4728  084b 2612          	jrne	L3522
4729                     ; 367 					frequency_value += 1000; 
4731  084d ae03e8        	ldw	x,#1000
4732  0850 bf02          	ldw	c_lreg+2,x
4733  0852 ae0000        	ldw	x,#0
4734  0855 bf00          	ldw	c_lreg,x
4735  0857 ae002a        	ldw	x,#_frequency_value
4736  085a cd0000        	call	c_lgadd
4739  085d 2048          	jra	L1422
4740  085f               L3522:
4741                     ; 369 				else if(number_button == 4){
4743  085f ce003a        	ldw	x,_number_button
4744  0862 a30004        	cpw	x,#4
4745  0865 2612          	jrne	L7522
4746                     ; 370 					frequency_value += 10000; 
4748  0867 ae2710        	ldw	x,#10000
4749  086a bf02          	ldw	c_lreg+2,x
4750  086c ae0000        	ldw	x,#0
4751  086f bf00          	ldw	c_lreg,x
4752  0871 ae002a        	ldw	x,#_frequency_value
4753  0874 cd0000        	call	c_lgadd
4756  0877 202e          	jra	L1422
4757  0879               L7522:
4758                     ; 372 				else if(number_button == 5){
4760  0879 ce003a        	ldw	x,_number_button
4761  087c a30005        	cpw	x,#5
4762  087f 2612          	jrne	L3622
4763                     ; 373 					frequency_value += 100000; 
4765  0881 ae86a0        	ldw	x,#34464
4766  0884 bf02          	ldw	c_lreg+2,x
4767  0886 ae0001        	ldw	x,#1
4768  0889 bf00          	ldw	c_lreg,x
4769  088b ae002a        	ldw	x,#_frequency_value
4770  088e cd0000        	call	c_lgadd
4773  0891 2014          	jra	L1422
4774  0893               L3622:
4775                     ; 375 				else if(number_button == 6){
4777  0893 ce003a        	ldw	x,_number_button
4778  0896 a30006        	cpw	x,#6
4779  0899 260c          	jrne	L1422
4780                     ; 376 					frequency_value = 0;
4782  089b ae0000        	ldw	x,#0
4783  089e cf002c        	ldw	_frequency_value+2,x
4784  08a1 ae0000        	ldw	x,#0
4785  08a4 cf002a        	ldw	_frequency_value,x
4786  08a7               L1422:
4787                     ; 378 				if(frequency_value > 999999){
4789  08a7 9c            	rvf
4790  08a8 ae002a        	ldw	x,#_frequency_value
4791  08ab cd0000        	call	c_ltor
4793  08ae ae0018        	ldw	x,#L011
4794  08b1 cd0000        	call	c_lcmp
4796  08b4 2f0c          	jrslt	L3322
4797                     ; 379 					frequency_value = 0;
4799  08b6 ae0000        	ldw	x,#0
4800  08b9 cf002c        	ldw	_frequency_value+2,x
4801  08bc ae0000        	ldw	x,#0
4802  08bf cf002a        	ldw	_frequency_value,x
4803  08c2               L3322:
4804                     ; 384 		if (left_right_menue_flag == 1){
4806  08c2 ce0030        	ldw	x,_left_right_menue_flag
4807  08c5 a30001        	cpw	x,#1
4808  08c8 2644          	jrne	L3722
4809                     ; 385 			if(cursor == 2){
4811  08ca ce0056        	ldw	x,_cursor
4812  08cd a30002        	cpw	x,#2
4813  08d0 263c          	jrne	L3722
4814                     ; 386 				if(number_button == 0){
4816  08d2 ce003a        	ldw	x,_number_button
4817  08d5 260b          	jrne	L7722
4818                     ; 387 					amplitude_value_10 +=1;
4820  08d7 ce004e        	ldw	x,_amplitude_value_10
4821  08da 1c0001        	addw	x,#1
4822  08dd cf004e        	ldw	_amplitude_value_10,x
4824  08e0 201f          	jra	L1032
4825  08e2               L7722:
4826                     ; 389 				else if(number_button == 1){
4828  08e2 ce003a        	ldw	x,_number_button
4829  08e5 a30001        	cpw	x,#1
4830  08e8 260b          	jrne	L3032
4831                     ; 390 					amplitude_value_10 +=10;
4833  08ea ce004e        	ldw	x,_amplitude_value_10
4834  08ed 1c000a        	addw	x,#10
4835  08f0 cf004e        	ldw	_amplitude_value_10,x
4837  08f3 200c          	jra	L1032
4838  08f5               L3032:
4839                     ; 392 				else if(number_button == 6){
4841  08f5 ce003a        	ldw	x,_number_button
4842  08f8 a30006        	cpw	x,#6
4843  08fb 2604          	jrne	L1032
4844                     ; 393 					amplitude_value_10 = 0;
4846  08fd 5f            	clrw	x
4847  08fe cf004e        	ldw	_amplitude_value_10,x
4848  0901               L1032:
4849                     ; 396 				if(amplitude_value_10 > 50){
4851  0901 9c            	rvf
4852  0902 ce004e        	ldw	x,_amplitude_value_10
4853  0905 a30033        	cpw	x,#51
4854  0908 2f04          	jrslt	L3722
4855                     ; 397 					amplitude_value_10 = 0;
4857  090a 5f            	clrw	x
4858  090b cf004e        	ldw	_amplitude_value_10,x
4859  090e               L3722:
4860                     ; 401 		if(left_right_menue_flag == 1){
4862  090e ce0030        	ldw	x,_left_right_menue_flag
4863  0911 a30001        	cpw	x,#1
4864  0914 2704          	jreq	L051
4865  0916 ac110a11      	jpf	L3132
4866  091a               L051:
4867                     ; 402 			if((cursor == 3)&((form_status == 1)|(form_status == 2))){
4869  091a ce0052        	ldw	x,_form_status
4870  091d a30002        	cpw	x,#2
4871  0920 2605          	jrne	L211
4872  0922 ae0001        	ldw	x,#1
4873  0925 2001          	jra	L411
4874  0927               L211:
4875  0927 5f            	clrw	x
4876  0928               L411:
4877  0928 1f03          	ldw	(OFST-1,sp),x
4879  092a ce0052        	ldw	x,_form_status
4880  092d a30001        	cpw	x,#1
4881  0930 2605          	jrne	L611
4882  0932 ae0001        	ldw	x,#1
4883  0935 2001          	jra	L021
4884  0937               L611:
4885  0937 5f            	clrw	x
4886  0938               L021:
4887  0938 01            	rrwa	x,a
4888  0939 1a04          	or	a,(OFST+0,sp)
4889  093b 01            	rrwa	x,a
4890  093c 1a03          	or	a,(OFST-1,sp)
4891  093e 01            	rrwa	x,a
4892  093f 1f01          	ldw	(OFST-3,sp),x
4894  0941 ce0056        	ldw	x,_cursor
4895  0944 a30003        	cpw	x,#3
4896  0947 2605          	jrne	L221
4897  0949 ae0001        	ldw	x,#1
4898  094c 2001          	jra	L421
4899  094e               L221:
4900  094e 5f            	clrw	x
4901  094f               L421:
4902  094f 01            	rrwa	x,a
4903  0950 1402          	and	a,(OFST-2,sp)
4904  0952 01            	rrwa	x,a
4905  0953 1401          	and	a,(OFST-3,sp)
4906  0955 01            	rrwa	x,a
4907  0956 a30000        	cpw	x,#0
4908  0959 2604          	jrne	L251
4909  095b ac110a11      	jpf	L3132
4910  095f               L251:
4911                     ; 403 				if(number_button == 0){
4913  095f ce003a        	ldw	x,_number_button
4914  0962 260c          	jrne	L7132
4915                     ; 404 					tplus_value++;
4917  0964 ae0048        	ldw	x,#_tplus_value
4918  0967 a601          	ld	a,#1
4919  0969 cd0000        	call	c_lgadc
4922  096c acf609f6      	jpf	L1232
4923  0970               L7132:
4924                     ; 406 				else if(number_button == 1){
4926  0970 ce003a        	ldw	x,_number_button
4927  0973 a30001        	cpw	x,#1
4928  0976 260a          	jrne	L3232
4929                     ; 407 					tplus_value += 10; 
4931  0978 ae0048        	ldw	x,#_tplus_value
4932  097b a60a          	ld	a,#10
4933  097d cd0000        	call	c_lgadc
4936  0980 2074          	jra	L1232
4937  0982               L3232:
4938                     ; 409 				else if(number_button == 2){
4940  0982 ce003a        	ldw	x,_number_button
4941  0985 a30002        	cpw	x,#2
4942  0988 260a          	jrne	L7232
4943                     ; 410 					tplus_value += 100; 
4945  098a ae0048        	ldw	x,#_tplus_value
4946  098d a664          	ld	a,#100
4947  098f cd0000        	call	c_lgadc
4950  0992 2062          	jra	L1232
4951  0994               L7232:
4952                     ; 412 				else if(number_button == 3){
4954  0994 ce003a        	ldw	x,_number_button
4955  0997 a30003        	cpw	x,#3
4956  099a 2612          	jrne	L3332
4957                     ; 413 					tplus_value += 1000; 
4959  099c ae03e8        	ldw	x,#1000
4960  099f bf02          	ldw	c_lreg+2,x
4961  09a1 ae0000        	ldw	x,#0
4962  09a4 bf00          	ldw	c_lreg,x
4963  09a6 ae0048        	ldw	x,#_tplus_value
4964  09a9 cd0000        	call	c_lgadd
4967  09ac 2048          	jra	L1232
4968  09ae               L3332:
4969                     ; 415 				else if(number_button == 4){
4971  09ae ce003a        	ldw	x,_number_button
4972  09b1 a30004        	cpw	x,#4
4973  09b4 2612          	jrne	L7332
4974                     ; 416 					tplus_value += 10000; 
4976  09b6 ae2710        	ldw	x,#10000
4977  09b9 bf02          	ldw	c_lreg+2,x
4978  09bb ae0000        	ldw	x,#0
4979  09be bf00          	ldw	c_lreg,x
4980  09c0 ae0048        	ldw	x,#_tplus_value
4981  09c3 cd0000        	call	c_lgadd
4984  09c6 202e          	jra	L1232
4985  09c8               L7332:
4986                     ; 418 				else if(number_button == 5){
4988  09c8 ce003a        	ldw	x,_number_button
4989  09cb a30005        	cpw	x,#5
4990  09ce 2612          	jrne	L3432
4991                     ; 419 					tplus_value += 100000; 
4993  09d0 ae86a0        	ldw	x,#34464
4994  09d3 bf02          	ldw	c_lreg+2,x
4995  09d5 ae0001        	ldw	x,#1
4996  09d8 bf00          	ldw	c_lreg,x
4997  09da ae0048        	ldw	x,#_tplus_value
4998  09dd cd0000        	call	c_lgadd
5001  09e0 2014          	jra	L1232
5002  09e2               L3432:
5003                     ; 421 				else if(number_button == 6){
5005  09e2 ce003a        	ldw	x,_number_button
5006  09e5 a30006        	cpw	x,#6
5007  09e8 260c          	jrne	L1232
5008                     ; 422 					tplus_value = 0;
5010  09ea ae0000        	ldw	x,#0
5011  09ed cf004a        	ldw	_tplus_value+2,x
5012  09f0 ae0000        	ldw	x,#0
5013  09f3 cf0048        	ldw	_tplus_value,x
5014  09f6               L1232:
5015                     ; 424 				if(tplus_value > 999999){
5017  09f6 9c            	rvf
5018  09f7 ae0048        	ldw	x,#_tplus_value
5019  09fa cd0000        	call	c_ltor
5021  09fd ae0018        	ldw	x,#L011
5022  0a00 cd0000        	call	c_lcmp
5024  0a03 2f0c          	jrslt	L3132
5025                     ; 425 					tplus_value = 0;
5027  0a05 ae0000        	ldw	x,#0
5028  0a08 cf004a        	ldw	_tplus_value+2,x
5029  0a0b ae0000        	ldw	x,#0
5030  0a0e cf0048        	ldw	_tplus_value,x
5031  0a11               L3132:
5032                     ; 429 			if(left_right_menue_flag == 1){
5034  0a11 ce0030        	ldw	x,_left_right_menue_flag
5035  0a14 a30001        	cpw	x,#1
5036  0a17 2704          	jreq	L451
5037  0a19 ac140b14      	jpf	L1122
5038  0a1d               L451:
5039                     ; 430 			if((cursor == 4)&((form_status == 1)|(form_status == 2))){
5041  0a1d ce0052        	ldw	x,_form_status
5042  0a20 a30002        	cpw	x,#2
5043  0a23 2605          	jrne	L621
5044  0a25 ae0001        	ldw	x,#1
5045  0a28 2001          	jra	L031
5046  0a2a               L621:
5047  0a2a 5f            	clrw	x
5048  0a2b               L031:
5049  0a2b 1f03          	ldw	(OFST-1,sp),x
5051  0a2d ce0052        	ldw	x,_form_status
5052  0a30 a30001        	cpw	x,#1
5053  0a33 2605          	jrne	L231
5054  0a35 ae0001        	ldw	x,#1
5055  0a38 2001          	jra	L431
5056  0a3a               L231:
5057  0a3a 5f            	clrw	x
5058  0a3b               L431:
5059  0a3b 01            	rrwa	x,a
5060  0a3c 1a04          	or	a,(OFST+0,sp)
5061  0a3e 01            	rrwa	x,a
5062  0a3f 1a03          	or	a,(OFST-1,sp)
5063  0a41 01            	rrwa	x,a
5064  0a42 1f01          	ldw	(OFST-3,sp),x
5066  0a44 ce0056        	ldw	x,_cursor
5067  0a47 a30004        	cpw	x,#4
5068  0a4a 2605          	jrne	L631
5069  0a4c ae0001        	ldw	x,#1
5070  0a4f 2001          	jra	L041
5071  0a51               L631:
5072  0a51 5f            	clrw	x
5073  0a52               L041:
5074  0a52 01            	rrwa	x,a
5075  0a53 1402          	and	a,(OFST-2,sp)
5076  0a55 01            	rrwa	x,a
5077  0a56 1401          	and	a,(OFST-3,sp)
5078  0a58 01            	rrwa	x,a
5079  0a59 a30000        	cpw	x,#0
5080  0a5c 2604          	jrne	L651
5081  0a5e ac140b14      	jpf	L1122
5082  0a62               L651:
5083                     ; 431 				if(number_button == 0){
5085  0a62 ce003a        	ldw	x,_number_button
5086  0a65 260c          	jrne	L7532
5087                     ; 432 					tminus_value++;
5089  0a67 ae0040        	ldw	x,#_tminus_value
5090  0a6a a601          	ld	a,#1
5091  0a6c cd0000        	call	c_lgadc
5094  0a6f acf90af9      	jpf	L1632
5095  0a73               L7532:
5096                     ; 434 				else if(number_button == 1){
5098  0a73 ce003a        	ldw	x,_number_button
5099  0a76 a30001        	cpw	x,#1
5100  0a79 260a          	jrne	L3632
5101                     ; 435 					tminus_value += 10; 
5103  0a7b ae0040        	ldw	x,#_tminus_value
5104  0a7e a60a          	ld	a,#10
5105  0a80 cd0000        	call	c_lgadc
5108  0a83 2074          	jra	L1632
5109  0a85               L3632:
5110                     ; 437 				else if(number_button == 2){
5112  0a85 ce003a        	ldw	x,_number_button
5113  0a88 a30002        	cpw	x,#2
5114  0a8b 260a          	jrne	L7632
5115                     ; 438 					tminus_value += 100; 
5117  0a8d ae0040        	ldw	x,#_tminus_value
5118  0a90 a664          	ld	a,#100
5119  0a92 cd0000        	call	c_lgadc
5122  0a95 2062          	jra	L1632
5123  0a97               L7632:
5124                     ; 440 				else if(number_button == 3){
5126  0a97 ce003a        	ldw	x,_number_button
5127  0a9a a30003        	cpw	x,#3
5128  0a9d 2612          	jrne	L3732
5129                     ; 441 					tminus_value += 1000; 
5131  0a9f ae03e8        	ldw	x,#1000
5132  0aa2 bf02          	ldw	c_lreg+2,x
5133  0aa4 ae0000        	ldw	x,#0
5134  0aa7 bf00          	ldw	c_lreg,x
5135  0aa9 ae0040        	ldw	x,#_tminus_value
5136  0aac cd0000        	call	c_lgadd
5139  0aaf 2048          	jra	L1632
5140  0ab1               L3732:
5141                     ; 443 				else if(number_button == 4){
5143  0ab1 ce003a        	ldw	x,_number_button
5144  0ab4 a30004        	cpw	x,#4
5145  0ab7 2612          	jrne	L7732
5146                     ; 444 					tminus_value += 10000; 
5148  0ab9 ae2710        	ldw	x,#10000
5149  0abc bf02          	ldw	c_lreg+2,x
5150  0abe ae0000        	ldw	x,#0
5151  0ac1 bf00          	ldw	c_lreg,x
5152  0ac3 ae0040        	ldw	x,#_tminus_value
5153  0ac6 cd0000        	call	c_lgadd
5156  0ac9 202e          	jra	L1632
5157  0acb               L7732:
5158                     ; 446 				else if(number_button == 5){
5160  0acb ce003a        	ldw	x,_number_button
5161  0ace a30005        	cpw	x,#5
5162  0ad1 2612          	jrne	L3042
5163                     ; 447 					tminus_value += 100000; 
5165  0ad3 ae86a0        	ldw	x,#34464
5166  0ad6 bf02          	ldw	c_lreg+2,x
5167  0ad8 ae0001        	ldw	x,#1
5168  0adb bf00          	ldw	c_lreg,x
5169  0add ae0040        	ldw	x,#_tminus_value
5170  0ae0 cd0000        	call	c_lgadd
5173  0ae3 2014          	jra	L1632
5174  0ae5               L3042:
5175                     ; 449 				else if(number_button == 6){
5177  0ae5 ce003a        	ldw	x,_number_button
5178  0ae8 a30006        	cpw	x,#6
5179  0aeb 260c          	jrne	L1632
5180                     ; 450 					tminus_value = 0;
5182  0aed ae0000        	ldw	x,#0
5183  0af0 cf0042        	ldw	_tminus_value+2,x
5184  0af3 ae0000        	ldw	x,#0
5185  0af6 cf0040        	ldw	_tminus_value,x
5186  0af9               L1632:
5187                     ; 452 				if(tminus_value > 999999){
5189  0af9 9c            	rvf
5190  0afa ae0040        	ldw	x,#_tminus_value
5191  0afd cd0000        	call	c_ltor
5193  0b00 ae0018        	ldw	x,#L011
5194  0b03 cd0000        	call	c_lcmp
5196  0b06 2f0c          	jrslt	L1122
5197                     ; 453 					tminus_value = 0;
5199  0b08 ae0000        	ldw	x,#0
5200  0b0b cf0042        	ldw	_tminus_value+2,x
5201  0b0e ae0000        	ldw	x,#0
5202  0b11 cf0040        	ldw	_tminus_value,x
5203  0b14               L1122:
5204                     ; 462 		PE_ODR = 0x00;
5206  0b14 725f5014      	clr	_PE_ODR
5207                     ; 463 }
5210  0b18 5b04          	addw	sp,#4
5211  0b1a 85            	popw	x
5212  0b1b bf00          	ldw	c_lreg,x
5213  0b1d 85            	popw	x
5214  0b1e bf02          	ldw	c_lreg+2,x
5215  0b20 85            	popw	x
5216  0b21 bf00          	ldw	c_x,x
5217  0b23 80            	iret
5249                     ; 469 void delay(int delay_number){
5251                     	switch	.text
5252  0b24               _delay:
5254  0b24 89            	pushw	x
5255       00000000      OFST:	set	0
5258                     ; 470 	for(delay_count=0; delay_count<delay_number; delay_count++);
5260  0b25 5f            	clrw	x
5261  0b26 cf0068        	ldw	_delay_count,x
5263  0b29 2009          	jra	L3342
5264  0b2b               L7242:
5268  0b2b ce0068        	ldw	x,_delay_count
5269  0b2e 1c0001        	addw	x,#1
5270  0b31 cf0068        	ldw	_delay_count,x
5271  0b34               L3342:
5274  0b34 9c            	rvf
5275  0b35 ce0068        	ldw	x,_delay_count
5276  0b38 1301          	cpw	x,(OFST+1,sp)
5277  0b3a 2fef          	jrslt	L7242
5278                     ; 471 }
5281  0b3c 85            	popw	x
5282  0b3d 81            	ret
5307                     ; 473 void strob(void){
5308                     	switch	.text
5309  0b3e               _strob:
5313                     ; 474 PF_ODR |= 0x80;
5315  0b3e 721e5019      	bset	_PF_ODR,#7
5316                     ; 475 delay(5);
5318  0b42 ae0005        	ldw	x,#5
5319  0b45 addd          	call	_delay
5321                     ; 476 PF_ODR &= 0x7F;
5323  0b47 721f5019      	bres	_PF_ODR,#7
5324                     ; 477 }
5327  0b4b 81            	ret
5354                     ; 479 void start(void){
5355                     	switch	.text
5356  0b4c               _start:
5360                     ; 480 PF_ODR &=0xEF;
5362  0b4c 72195019      	bres	_PF_ODR,#4
5363                     ; 481 PF_ODR |=0x10;
5365  0b50 72185019      	bset	_PF_ODR,#4
5366                     ; 482 delay(1);
5368  0b54 ae0001        	ldw	x,#1
5369  0b57 adcb          	call	_delay
5371                     ; 483 PF_ODR &=0x7F;
5373  0b59 721f5019      	bres	_PF_ODR,#7
5374                     ; 484 PF_ODR &=0xBF;
5376  0b5d 721d5019      	bres	_PF_ODR,#6
5377                     ; 485 PF_ODR &=0xDF;
5379  0b61 721b5019      	bres	_PF_ODR,#5
5380                     ; 486 PF_ODR |= 0x09;
5382  0b65 c65019        	ld	a,_PF_ODR
5383  0b68 aa09          	or	a,#9
5384  0b6a c75019        	ld	_PF_ODR,a
5385                     ; 487 PB_ODR = 0x3F;
5387  0b6d 353f5005      	mov	_PB_ODR,#63
5388                     ; 488 strob();
5390  0b71 adcb          	call	_strob
5392                     ; 489 }
5395  0b73 81            	ret
5423                     ; 491 void clean (void){
5424                     	switch	.text
5425  0b74               _clean:
5429                     ; 492 	PF_ODR |= 0x09;	//  ;
5431  0b74 c65019        	ld	a,_PF_ODR
5432  0b77 aa09          	or	a,#9
5433  0b79 c75019        	ld	_PF_ODR,a
5434                     ; 493 for (counter_pages = 0xB8; counter_pages < 0xC0; counter_pages++){
5436  0b7c ae00b8        	ldw	x,#184
5437  0b7f cf0064        	ldw	_counter_pages,x
5438  0b82               L7642:
5439                     ; 494 	PF_ODR &= 0xBF; // 
5441  0b82 721d5019      	bres	_PF_ODR,#6
5442                     ; 495 	PB_ODR = counter_pages;
5444  0b86 5500655005    	mov	_PB_ODR,_counter_pages+1
5445                     ; 496 	strob();
5447  0b8b adb1          	call	_strob
5449                     ; 497 	PB_ODR = 0x40; //   0   
5451  0b8d 35405005      	mov	_PB_ODR,#64
5452                     ; 498 	strob();
5454  0b91 adab          	call	_strob
5456                     ; 499 	PF_ODR |= 0x40; // 
5458  0b93 721c5019      	bset	_PF_ODR,#6
5459                     ; 500 	PB_ODR = 0x00;
5461  0b97 725f5005      	clr	_PB_ODR
5462                     ; 501 for (counter_64 = 0; counter_64 < 64; counter_64++){
5464  0b9b 5f            	clrw	x
5465  0b9c cf0066        	ldw	_counter_64,x
5466  0b9f               L5742:
5467                     ; 502 	strob();
5469  0b9f ad9d          	call	_strob
5471                     ; 501 for (counter_64 = 0; counter_64 < 64; counter_64++){
5473  0ba1 ce0066        	ldw	x,_counter_64
5474  0ba4 1c0001        	addw	x,#1
5475  0ba7 cf0066        	ldw	_counter_64,x
5478  0baa 9c            	rvf
5479  0bab ce0066        	ldw	x,_counter_64
5480  0bae a30040        	cpw	x,#64
5481  0bb1 2fec          	jrslt	L5742
5482                     ; 493 for (counter_pages = 0xB8; counter_pages < 0xC0; counter_pages++){
5484  0bb3 ce0064        	ldw	x,_counter_pages
5485  0bb6 1c0001        	addw	x,#1
5486  0bb9 cf0064        	ldw	_counter_pages,x
5489  0bbc 9c            	rvf
5490  0bbd ce0064        	ldw	x,_counter_pages
5491  0bc0 a300c0        	cpw	x,#192
5492  0bc3 2fbd          	jrslt	L7642
5493                     ; 505 	PF_ODR &= 0xBF; // 
5495  0bc5 721d5019      	bres	_PF_ODR,#6
5496                     ; 506 }
5499  0bc9 81            	ret
5541                     ; 508 void coord(int x_coord, int y_coord) {
5542                     	switch	.text
5543  0bca               _coord:
5545  0bca 89            	pushw	x
5546       00000000      OFST:	set	0
5549                     ; 509 	PF_ODR &= 0xBF;  // 
5551  0bcb 721d5019      	bres	_PF_ODR,#6
5552                     ; 510 	PB_ODR = x_coord + 0x40;
5554  0bcf 9f            	ld	a,xl
5555  0bd0 ab40          	add	a,#64
5556  0bd2 c75005        	ld	_PB_ODR,a
5557                     ; 511 	strob();
5559  0bd5 cd0b3e        	call	_strob
5561                     ; 512 	PB_ODR = y_coord + 0xB8;
5563  0bd8 7b06          	ld	a,(OFST+6,sp)
5564  0bda abb8          	add	a,#184
5565  0bdc c75005        	ld	_PB_ODR,a
5566                     ; 513 	strob();
5568  0bdf cd0b3e        	call	_strob
5570                     ; 514 	PF_ODR |= 0x40;  // 
5572  0be2 721c5019      	bset	_PF_ODR,#6
5573                     ; 515 }
5576  0be6 85            	popw	x
5577  0be7 81            	ret
5614                     ; 517 void write_numb(int symbol_numb){
5615                     	switch	.text
5616  0be8               _write_numb:
5618  0be8 89            	pushw	x
5619  0be9 89            	pushw	x
5620       00000002      OFST:	set	2
5623                     ; 518 	PF_ODR |= 0x40;  // 
5625  0bea 721c5019      	bset	_PF_ODR,#6
5626                     ; 519 	for(write_counter = 0; write_counter < 5; write_counter++) {
5628  0bee 5f            	clrw	x
5629  0bef cf005c        	ldw	_write_counter,x
5630  0bf2               L5352:
5631                     ; 520 		PB_ODR = numb_arr[symbol_numb][write_counter];
5633  0bf2 ce005c        	ldw	x,_write_counter
5634  0bf5 58            	sllw	x
5635  0bf6 1f01          	ldw	(OFST-1,sp),x
5637  0bf8 1e03          	ldw	x,(OFST+1,sp)
5638  0bfa a60a          	ld	a,#10
5639  0bfc cd0000        	call	c_bmulx
5641  0bff 72fb01        	addw	x,(OFST-1,sp)
5642  0c02 d60001        	ld	a,(_numb_arr+1,x)
5643  0c05 c75005        	ld	_PB_ODR,a
5644                     ; 521 		strob();
5646  0c08 cd0b3e        	call	_strob
5648                     ; 519 	for(write_counter = 0; write_counter < 5; write_counter++) {
5650  0c0b ce005c        	ldw	x,_write_counter
5651  0c0e 1c0001        	addw	x,#1
5652  0c11 cf005c        	ldw	_write_counter,x
5655  0c14 9c            	rvf
5656  0c15 ce005c        	ldw	x,_write_counter
5657  0c18 a30005        	cpw	x,#5
5658  0c1b 2fd5          	jrslt	L5352
5659                     ; 523 }
5662  0c1d 5b04          	addw	sp,#4
5663  0c1f 81            	ret
5700                     ; 525 void write_symb(int symbol_numb){
5701                     	switch	.text
5702  0c20               _write_symb:
5704  0c20 89            	pushw	x
5705  0c21 89            	pushw	x
5706       00000002      OFST:	set	2
5709                     ; 526 	PF_ODR |= 0x40;  // 
5711  0c22 721c5019      	bset	_PF_ODR,#6
5712                     ; 527 	for(write_counter = 0; write_counter < 6; write_counter++) {
5714  0c26 5f            	clrw	x
5715  0c27 cf005c        	ldw	_write_counter,x
5716  0c2a               L7552:
5717                     ; 528 		PB_ODR = Hsymb_arr[symbol_numb][write_counter];
5719  0c2a ce005c        	ldw	x,_write_counter
5720  0c2d 58            	sllw	x
5721  0c2e 1f01          	ldw	(OFST-1,sp),x
5723  0c30 1e03          	ldw	x,(OFST+1,sp)
5724  0c32 a60c          	ld	a,#12
5725  0c34 cd0000        	call	c_bmulx
5727  0c37 72fb01        	addw	x,(OFST-1,sp)
5728  0c3a d6006f        	ld	a,(_Hsymb_arr+1,x)
5729  0c3d c75005        	ld	_PB_ODR,a
5730                     ; 529 		strob();
5732  0c40 cd0b3e        	call	_strob
5734                     ; 527 	for(write_counter = 0; write_counter < 6; write_counter++) {
5736  0c43 ce005c        	ldw	x,_write_counter
5737  0c46 1c0001        	addw	x,#1
5738  0c49 cf005c        	ldw	_write_counter,x
5741  0c4c 9c            	rvf
5742  0c4d ce005c        	ldw	x,_write_counter
5743  0c50 a30006        	cpw	x,#6
5744  0c53 2fd5          	jrslt	L7552
5745                     ; 531 }
5748  0c55 5b04          	addw	sp,#4
5749  0c57 81            	ret
5782                     ; 533 void crystal_select(int crystal_numb){
5783                     	switch	.text
5784  0c58               _crystal_select:
5786  0c58 89            	pushw	x
5787       00000000      OFST:	set	0
5790                     ; 534 	if (crystal_numb == 0){
5792  0c59 a30000        	cpw	x,#0
5793  0c5c 2608          	jrne	L1062
5794                     ; 535 			PF_ODR |= 0x09;	//  ;
5796  0c5e c65019        	ld	a,_PF_ODR
5797  0c61 aa09          	or	a,#9
5798  0c63 c75019        	ld	_PF_ODR,a
5799  0c66               L1062:
5800                     ; 537 	if (crystal_numb == 1){
5802  0c66 1e01          	ldw	x,(OFST+1,sp)
5803  0c68 a30001        	cpw	x,#1
5804  0c6b 2608          	jrne	L3062
5805                     ; 538 			PF_ODR |= 0x01; //1 = 1  1 
5807  0c6d 72105019      	bset	_PF_ODR,#0
5808                     ; 539 			PF_ODR &= 0xF7; //2 = 0  2 
5810  0c71 72175019      	bres	_PF_ODR,#3
5811  0c75               L3062:
5812                     ; 541 		if (crystal_numb == 2){
5814  0c75 1e01          	ldw	x,(OFST+1,sp)
5815  0c77 a30002        	cpw	x,#2
5816  0c7a 2608          	jrne	L5062
5817                     ; 542 			PF_ODR &= 0xFE; //1 = 0  1 
5819  0c7c 72115019      	bres	_PF_ODR,#0
5820                     ; 543 			PF_ODR |= 0x08; //2 = 1  2 
5822  0c80 72165019      	bset	_PF_ODR,#3
5823  0c84               L5062:
5824                     ; 545 }
5827  0c84 85            	popw	x
5828  0c85 81            	ret
5864                     ; 547 void clean_symb(int symb_type){
5865                     	switch	.text
5866  0c86               _clean_symb:
5868  0c86 89            	pushw	x
5869       00000000      OFST:	set	0
5872                     ; 548 	PF_ODR |= 0x40;  // 
5874  0c87 721c5019      	bset	_PF_ODR,#6
5875                     ; 549 	if(symb_type == 0){
5877  0c8b a30000        	cpw	x,#0
5878  0c8e 2604          	jrne	L3262
5879                     ; 550 		write_counter = 0;
5881  0c90 5f            	clrw	x
5882  0c91 cf005c        	ldw	_write_counter,x
5883  0c94               L3262:
5884                     ; 552 	if(symb_type == 1){
5886  0c94 1e01          	ldw	x,(OFST+1,sp)
5887  0c96 a30001        	cpw	x,#1
5888  0c99 2606          	jrne	L5262
5889                     ; 553 		write_counter = -1;
5891  0c9b aeffff        	ldw	x,#65535
5892  0c9e cf005c        	ldw	_write_counter,x
5893  0ca1               L5262:
5894                     ; 555 	if(symb_type == 2){
5896  0ca1 1e01          	ldw	x,(OFST+1,sp)
5897  0ca3 a30002        	cpw	x,#2
5898  0ca6 2606          	jrne	L7262
5899                     ; 556 		write_counter = -59;
5901  0ca8 aeffc5        	ldw	x,#65477
5902  0cab cf005c        	ldw	_write_counter,x
5903  0cae               L7262:
5904                     ; 558 	for(write_counter; write_counter < 5; write_counter++) {
5907  0cae 2010          	jra	L5362
5908  0cb0               L1362:
5909                     ; 559 		PB_ODR = 0x00;
5911  0cb0 725f5005      	clr	_PB_ODR
5912                     ; 560 		strob();
5914  0cb4 cd0b3e        	call	_strob
5916                     ; 558 	for(write_counter; write_counter < 5; write_counter++) {
5918  0cb7 ce005c        	ldw	x,_write_counter
5919  0cba 1c0001        	addw	x,#1
5920  0cbd cf005c        	ldw	_write_counter,x
5921  0cc0               L5362:
5924  0cc0 9c            	rvf
5925  0cc1 ce005c        	ldw	x,_write_counter
5926  0cc4 a30005        	cpw	x,#5
5927  0cc7 2fe7          	jrslt	L1362
5928                     ; 562 }
5931  0cc9 85            	popw	x
5932  0cca 81            	ret
5967                     ; 564 void clean_cursor(int pre_cursor){
5968                     	switch	.text
5969  0ccb               _clean_cursor:
5971  0ccb 89            	pushw	x
5972       00000000      OFST:	set	0
5975                     ; 565 	crystal_select(1);
5977  0ccc ae0001        	ldw	x,#1
5978  0ccf ad87          	call	_crystal_select
5980                     ; 566 	coord(0, pre_cursor);
5982  0cd1 1e01          	ldw	x,(OFST+1,sp)
5983  0cd3 89            	pushw	x
5984  0cd4 5f            	clrw	x
5985  0cd5 cd0bca        	call	_coord
5987  0cd8 85            	popw	x
5988                     ; 567 	clean_symb(1);
5990  0cd9 ae0001        	ldw	x,#1
5991  0cdc ada8          	call	_clean_symb
5993                     ; 568 }
5996  0cde 85            	popw	x
5997  0cdf 81            	ret
6033                     ; 570 void set_cursor(int cursor){
6034                     	switch	.text
6035  0ce0               _set_cursor:
6037  0ce0 89            	pushw	x
6038       00000000      OFST:	set	0
6041                     ; 571 	if(left_right_menue_flag == 0){
6043  0ce1 ce0030        	ldw	x,_left_right_menue_flag
6044  0ce4 2614          	jrne	L1762
6045                     ; 572 	crystal_select(1);
6047  0ce6 ae0001        	ldw	x,#1
6048  0ce9 cd0c58        	call	_crystal_select
6050                     ; 573 	coord(0, cursor);
6052  0cec 1e01          	ldw	x,(OFST+1,sp)
6053  0cee 89            	pushw	x
6054  0cef 5f            	clrw	x
6055  0cf0 cd0bca        	call	_coord
6057  0cf3 85            	popw	x
6058                     ; 574 	write_symb(30);
6060  0cf4 ae001e        	ldw	x,#30
6061  0cf7 cd0c20        	call	_write_symb
6063  0cfa               L1762:
6064                     ; 576 	if(left_right_menue_flag == 1){
6066  0cfa ce0030        	ldw	x,_left_right_menue_flag
6067  0cfd a30001        	cpw	x,#1
6068  0d00 2614          	jrne	L3762
6069                     ; 577 	crystal_select(1);
6071  0d02 ae0001        	ldw	x,#1
6072  0d05 cd0c58        	call	_crystal_select
6074                     ; 578 	coord(0, cursor);
6076  0d08 1e01          	ldw	x,(OFST+1,sp)
6077  0d0a 89            	pushw	x
6078  0d0b 5f            	clrw	x
6079  0d0c cd0bca        	call	_coord
6081  0d0f 85            	popw	x
6082                     ; 579 	write_symb(35);
6084  0d10 ae0023        	ldw	x,#35
6085  0d13 cd0c20        	call	_write_symb
6087  0d16               L3762:
6088                     ; 581 }
6091  0d16 85            	popw	x
6092  0d17 81            	ret
6118                     ; 583 void title_form(void){
6119                     	switch	.text
6120  0d18               _title_form:
6124                     ; 584 	crystal_select(1);
6126  0d18 ae0001        	ldw	x,#1
6127  0d1b cd0c58        	call	_crystal_select
6129                     ; 585 	coord(6, 0);
6131  0d1e 5f            	clrw	x
6132  0d1f 89            	pushw	x
6133  0d20 ae0006        	ldw	x,#6
6134  0d23 cd0bca        	call	_coord
6136  0d26 85            	popw	x
6137                     ; 586 	write_symb(18);//S
6139  0d27 ae0012        	ldw	x,#18
6140  0d2a cd0c20        	call	_write_symb
6142                     ; 587 	write_symb(8);//I
6144  0d2d ae0008        	ldw	x,#8
6145  0d30 cd0c20        	call	_write_symb
6147                     ; 588 	write_symb(6);//G
6149  0d33 ae0006        	ldw	x,#6
6150  0d36 cd0c20        	call	_write_symb
6152                     ; 589 	write_symb(13);//N
6154  0d39 ae000d        	ldw	x,#13
6155  0d3c cd0c20        	call	_write_symb
6157                     ; 590 	write_symb(31);//_
6159  0d3f ae001f        	ldw	x,#31
6160  0d42 cd0c20        	call	_write_symb
6162                     ; 591 	write_symb(5);//F
6164  0d45 ae0005        	ldw	x,#5
6165  0d48 cd0c20        	call	_write_symb
6167                     ; 592 	write_symb(14);//O
6169  0d4b ae000e        	ldw	x,#14
6170  0d4e cd0c20        	call	_write_symb
6172                     ; 593 	write_symb(17);//R
6174  0d51 ae0011        	ldw	x,#17
6175  0d54 cd0c20        	call	_write_symb
6177                     ; 594 	write_symb(12);//M	
6179  0d57 ae000c        	ldw	x,#12
6180  0d5a cd0c20        	call	_write_symb
6182                     ; 595 }
6185  0d5d 81            	ret
6211                     ; 597 void title_freq(void){
6212                     	switch	.text
6213  0d5e               _title_freq:
6217                     ; 598 	crystal_select(1);
6219  0d5e ae0001        	ldw	x,#1
6220  0d61 cd0c58        	call	_crystal_select
6222                     ; 599 	coord(6, 1);
6224  0d64 ae0001        	ldw	x,#1
6225  0d67 89            	pushw	x
6226  0d68 ae0006        	ldw	x,#6
6227  0d6b cd0bca        	call	_coord
6229  0d6e 85            	popw	x
6230                     ; 600 	write_symb(5);//F
6232  0d6f ae0005        	ldw	x,#5
6233  0d72 cd0c20        	call	_write_symb
6235                     ; 601 	write_symb(17);//R
6237  0d75 ae0011        	ldw	x,#17
6238  0d78 cd0c20        	call	_write_symb
6240                     ; 602 	write_symb(4);//E
6242  0d7b ae0004        	ldw	x,#4
6243  0d7e cd0c20        	call	_write_symb
6245                     ; 603 	write_symb(16);//Q	
6247  0d81 ae0010        	ldw	x,#16
6248  0d84 cd0c20        	call	_write_symb
6250                     ; 604 	write_symb(20);//U
6252  0d87 ae0014        	ldw	x,#20
6253  0d8a cd0c20        	call	_write_symb
6255                     ; 605 	write_symb(4);//E
6257  0d8d ae0004        	ldw	x,#4
6258  0d90 cd0c20        	call	_write_symb
6260                     ; 606 	write_symb(13);//N
6262  0d93 ae000d        	ldw	x,#13
6263  0d96 cd0c20        	call	_write_symb
6265                     ; 607 	write_symb(2);//C
6267  0d99 ae0002        	ldw	x,#2
6268  0d9c cd0c20        	call	_write_symb
6270                     ; 608 	write_symb(24);//Y
6272  0d9f ae0018        	ldw	x,#24
6273  0da2 cd0c20        	call	_write_symb
6275                     ; 609 }
6278  0da5 81            	ret
6304                     ; 611 void title_ampl(void){
6305                     	switch	.text
6306  0da6               _title_ampl:
6310                     ; 612 	crystal_select(1);
6312  0da6 ae0001        	ldw	x,#1
6313  0da9 cd0c58        	call	_crystal_select
6315                     ; 613 	coord(6, 2);
6317  0dac ae0002        	ldw	x,#2
6318  0daf 89            	pushw	x
6319  0db0 ae0006        	ldw	x,#6
6320  0db3 cd0bca        	call	_coord
6322  0db6 85            	popw	x
6323                     ; 614 	write_symb(0);//A
6325  0db7 5f            	clrw	x
6326  0db8 cd0c20        	call	_write_symb
6328                     ; 615 	write_symb(12);//M
6330  0dbb ae000c        	ldw	x,#12
6331  0dbe cd0c20        	call	_write_symb
6333                     ; 616 	write_symb(15);//P
6335  0dc1 ae000f        	ldw	x,#15
6336  0dc4 cd0c20        	call	_write_symb
6338                     ; 617 	write_symb(11);//L	
6340  0dc7 ae000b        	ldw	x,#11
6341  0dca cd0c20        	call	_write_symb
6343                     ; 618 	write_symb(8);//I
6345  0dcd ae0008        	ldw	x,#8
6346  0dd0 cd0c20        	call	_write_symb
6348                     ; 619 	write_symb(19);//T
6350  0dd3 ae0013        	ldw	x,#19
6351  0dd6 cd0c20        	call	_write_symb
6353                     ; 620 	write_symb(20);//U
6355  0dd9 ae0014        	ldw	x,#20
6356  0ddc cd0c20        	call	_write_symb
6358                     ; 621 	write_symb(3);//D
6360  0ddf ae0003        	ldw	x,#3
6361  0de2 cd0c20        	call	_write_symb
6363                     ; 622 	write_symb(4);//E
6365  0de5 ae0004        	ldw	x,#4
6366  0de8 cd0c20        	call	_write_symb
6368                     ; 624 }
6371  0deb 81            	ret
6397                     ; 626 void title_tplus(void){
6398                     	switch	.text
6399  0dec               _title_tplus:
6403                     ; 627 	crystal_select(1);
6405  0dec ae0001        	ldw	x,#1
6406  0def cd0c58        	call	_crystal_select
6408                     ; 628 	coord(6, 3);
6410  0df2 ae0003        	ldw	x,#3
6411  0df5 89            	pushw	x
6412  0df6 ae0006        	ldw	x,#6
6413  0df9 cd0bca        	call	_coord
6415  0dfc 85            	popw	x
6416                     ; 629 	write_symb(19);//T
6418  0dfd ae0013        	ldw	x,#19
6419  0e00 cd0c20        	call	_write_symb
6421                     ; 630 	write_symb(27);//+
6423  0e03 ae001b        	ldw	x,#27
6424  0e06 cd0c20        	call	_write_symb
6426                     ; 632 }
6429  0e09 81            	ret
6455                     ; 634 void title_tminus(void){
6456                     	switch	.text
6457  0e0a               _title_tminus:
6461                     ; 635 	crystal_select(1);
6463  0e0a ae0001        	ldw	x,#1
6464  0e0d cd0c58        	call	_crystal_select
6466                     ; 636 	coord(6, 4);
6468  0e10 ae0004        	ldw	x,#4
6469  0e13 89            	pushw	x
6470  0e14 ae0006        	ldw	x,#6
6471  0e17 cd0bca        	call	_coord
6473  0e1a 85            	popw	x
6474                     ; 637 	write_symb(19);//T
6476  0e1b ae0013        	ldw	x,#19
6477  0e1e cd0c20        	call	_write_symb
6479                     ; 638 	write_symb(26);//-
6481  0e21 ae001a        	ldw	x,#26
6482  0e24 cd0c20        	call	_write_symb
6484                     ; 640 }
6487  0e27 81            	ret
6524                     ; 642 void chose_form(int form_status){
6525                     	switch	.text
6526  0e28               _chose_form:
6528  0e28 89            	pushw	x
6529       00000000      OFST:	set	0
6532                     ; 643 	crystal_select(2);
6534  0e29 ae0002        	ldw	x,#2
6535  0e2c cd0c58        	call	_crystal_select
6537                     ; 644 	coord(0, 0);
6539  0e2f 5f            	clrw	x
6540  0e30 89            	pushw	x
6541  0e31 5f            	clrw	x
6542  0e32 cd0bca        	call	_coord
6544  0e35 85            	popw	x
6545                     ; 645 	if (form_status == 0){
6547  0e36 1e01          	ldw	x,(OFST+1,sp)
6548  0e38 262a          	jrne	L1672
6549                     ; 646 		write_symb(18);//S
6551  0e3a ae0012        	ldw	x,#18
6552  0e3d cd0c20        	call	_write_symb
6554                     ; 647 		write_symb(8);//I
6556  0e40 ae0008        	ldw	x,#8
6557  0e43 cd0c20        	call	_write_symb
6559                     ; 648 		write_symb(13);//N
6561  0e46 ae000d        	ldw	x,#13
6562  0e49 cd0c20        	call	_write_symb
6564                     ; 649 		clean_symb(1);
6566  0e4c ae0001        	ldw	x,#1
6567  0e4f cd0c86        	call	_clean_symb
6569                     ; 650 		clean_symb(1);
6571  0e52 ae0001        	ldw	x,#1
6572  0e55 cd0c86        	call	_clean_symb
6574                     ; 651 		clean_symb(1);
6576  0e58 ae0001        	ldw	x,#1
6577  0e5b cd0c86        	call	_clean_symb
6579                     ; 652 		title_not_avelible(form_status);
6581  0e5e 1e01          	ldw	x,(OFST+1,sp)
6582  0e60 ad60          	call	_title_not_avelible
6585  0e62 205c          	jra	L3672
6586  0e64               L1672:
6587                     ; 654 	else if (form_status == 1){
6589  0e64 1e01          	ldw	x,(OFST+1,sp)
6590  0e66 a30001        	cpw	x,#1
6591  0e69 2628          	jrne	L5672
6592                     ; 655 		write_symb(18);//S
6594  0e6b ae0012        	ldw	x,#18
6595  0e6e cd0c20        	call	_write_symb
6597                     ; 656 		write_symb(16);//Q	
6599  0e71 ae0010        	ldw	x,#16
6600  0e74 cd0c20        	call	_write_symb
6602                     ; 657 		write_symb(20);//U
6604  0e77 ae0014        	ldw	x,#20
6605  0e7a cd0c20        	call	_write_symb
6607                     ; 658 		write_symb(0);//A
6609  0e7d 5f            	clrw	x
6610  0e7e cd0c20        	call	_write_symb
6612                     ; 659 		write_symb(17);//R
6614  0e81 ae0011        	ldw	x,#17
6615  0e84 cd0c20        	call	_write_symb
6617                     ; 660 		write_symb(4);//E
6619  0e87 ae0004        	ldw	x,#4
6620  0e8a cd0c20        	call	_write_symb
6622                     ; 661 		title_not_avelible(form_status);
6624  0e8d 1e01          	ldw	x,(OFST+1,sp)
6625  0e8f ad31          	call	_title_not_avelible
6628  0e91 202d          	jra	L3672
6629  0e93               L5672:
6630                     ; 663 	else if (form_status == 2){
6632  0e93 1e01          	ldw	x,(OFST+1,sp)
6633  0e95 a30002        	cpw	x,#2
6634  0e98 2626          	jrne	L3672
6635                     ; 664 		write_symb(19);//T
6637  0e9a ae0013        	ldw	x,#19
6638  0e9d cd0c20        	call	_write_symb
6640                     ; 665 		write_symb(17);//R	
6642  0ea0 ae0011        	ldw	x,#17
6643  0ea3 cd0c20        	call	_write_symb
6645                     ; 666 		write_symb(8);//I
6647  0ea6 ae0008        	ldw	x,#8
6648  0ea9 cd0c20        	call	_write_symb
6650                     ; 667 		write_symb(0);//A
6652  0eac 5f            	clrw	x
6653  0ead cd0c20        	call	_write_symb
6655                     ; 668 		write_symb(13);//N
6657  0eb0 ae000d        	ldw	x,#13
6658  0eb3 cd0c20        	call	_write_symb
6660                     ; 669 		write_symb(6);//G
6662  0eb6 ae0006        	ldw	x,#6
6663  0eb9 cd0c20        	call	_write_symb
6665                     ; 670 		title_not_avelible(form_status);
6667  0ebc 1e01          	ldw	x,(OFST+1,sp)
6668  0ebe ad02          	call	_title_not_avelible
6670  0ec0               L3672:
6671                     ; 672 }
6674  0ec0 85            	popw	x
6675  0ec1 81            	ret
6711                     ; 674 void title_not_avelible(int form_status){
6712                     	switch	.text
6713  0ec2               _title_not_avelible:
6715  0ec2 89            	pushw	x
6716       00000000      OFST:	set	0
6719                     ; 675 	crystal_select(2);
6721  0ec3 ae0002        	ldw	x,#2
6722  0ec6 cd0c58        	call	_crystal_select
6724                     ; 676 	if (form_status == 0){
6726  0ec9 1e01          	ldw	x,(OFST+1,sp)
6727  0ecb 2703          	jreq	L422
6728  0ecd cc0f76        	jp	L7003
6729  0ed0               L422:
6730                     ; 677 		coord(0, 3);
6732  0ed0 ae0003        	ldw	x,#3
6733  0ed3 89            	pushw	x
6734  0ed4 5f            	clrw	x
6735  0ed5 cd0bca        	call	_coord
6737  0ed8 85            	popw	x
6738                     ; 678 		clean_symb(2);
6740  0ed9 ae0002        	ldw	x,#2
6741  0edc cd0c86        	call	_clean_symb
6743                     ; 679 		coord(0, 3);
6745  0edf ae0003        	ldw	x,#3
6746  0ee2 89            	pushw	x
6747  0ee3 5f            	clrw	x
6748  0ee4 cd0bca        	call	_coord
6750  0ee7 85            	popw	x
6751                     ; 680 		write_symb(13);//N
6753  0ee8 ae000d        	ldw	x,#13
6754  0eeb cd0c20        	call	_write_symb
6756                     ; 681 		write_symb(14);//O
6758  0eee ae000e        	ldw	x,#14
6759  0ef1 cd0c20        	call	_write_symb
6761                     ; 682 		write_symb(19);//T
6763  0ef4 ae0013        	ldw	x,#19
6764  0ef7 cd0c20        	call	_write_symb
6766                     ; 683 		write_symb(31);//" "
6768  0efa ae001f        	ldw	x,#31
6769  0efd cd0c20        	call	_write_symb
6771                     ; 684 		write_symb(0);//A
6773  0f00 5f            	clrw	x
6774  0f01 cd0c20        	call	_write_symb
6776                     ; 685 		write_symb(21);//V
6778  0f04 ae0015        	ldw	x,#21
6779  0f07 cd0c20        	call	_write_symb
6781                     ; 686 		write_symb(4);//E
6783  0f0a ae0004        	ldw	x,#4
6784  0f0d cd0c20        	call	_write_symb
6786                     ; 687 		write_symb(11);//L		
6788  0f10 ae000b        	ldw	x,#11
6789  0f13 cd0c20        	call	_write_symb
6791                     ; 688 		write_symb(8);//I		
6793  0f16 ae0008        	ldw	x,#8
6794  0f19 cd0c20        	call	_write_symb
6796                     ; 689 		write_symb(1);//B		
6798  0f1c ae0001        	ldw	x,#1
6799  0f1f cd0c20        	call	_write_symb
6801                     ; 690 		coord(0, 4);
6803  0f22 ae0004        	ldw	x,#4
6804  0f25 89            	pushw	x
6805  0f26 5f            	clrw	x
6806  0f27 cd0bca        	call	_coord
6808  0f2a 85            	popw	x
6809                     ; 691 		clean_symb(2);
6811  0f2b ae0002        	ldw	x,#2
6812  0f2e cd0c86        	call	_clean_symb
6814                     ; 692 		coord(0, 4);
6816  0f31 ae0004        	ldw	x,#4
6817  0f34 89            	pushw	x
6818  0f35 5f            	clrw	x
6819  0f36 cd0bca        	call	_coord
6821  0f39 85            	popw	x
6822                     ; 693 		write_symb(13);//N
6824  0f3a ae000d        	ldw	x,#13
6825  0f3d cd0c20        	call	_write_symb
6827                     ; 694 		write_symb(14);//O
6829  0f40 ae000e        	ldw	x,#14
6830  0f43 cd0c20        	call	_write_symb
6832                     ; 695 		write_symb(19);//T
6834  0f46 ae0013        	ldw	x,#19
6835  0f49 cd0c20        	call	_write_symb
6837                     ; 696 		write_symb(31);//" "
6839  0f4c ae001f        	ldw	x,#31
6840  0f4f cd0c20        	call	_write_symb
6842                     ; 697 		write_symb(0);//A
6844  0f52 5f            	clrw	x
6845  0f53 cd0c20        	call	_write_symb
6847                     ; 698 		write_symb(21);//V
6849  0f56 ae0015        	ldw	x,#21
6850  0f59 cd0c20        	call	_write_symb
6852                     ; 699 		write_symb(4);//E
6854  0f5c ae0004        	ldw	x,#4
6855  0f5f cd0c20        	call	_write_symb
6857                     ; 700 		write_symb(11);//L		
6859  0f62 ae000b        	ldw	x,#11
6860  0f65 cd0c20        	call	_write_symb
6862                     ; 701 		write_symb(8);//I		
6864  0f68 ae0008        	ldw	x,#8
6865  0f6b cd0c20        	call	_write_symb
6867                     ; 702 		write_symb(1);//B	
6869  0f6e ae0001        	ldw	x,#1
6870  0f71 cd0c20        	call	_write_symb
6873  0f74 2060          	jra	L1103
6874  0f76               L7003:
6875                     ; 705 	else if (form_status == 1){
6877  0f76 1e01          	ldw	x,(OFST+1,sp)
6878  0f78 a30001        	cpw	x,#1
6879  0f7b 2654          	jrne	L3103
6880                     ; 706 			coord(0, 1);
6882  0f7d ae0001        	ldw	x,#1
6883  0f80 89            	pushw	x
6884  0f81 5f            	clrw	x
6885  0f82 cd0bca        	call	_coord
6887  0f85 85            	popw	x
6888                     ; 707 			clean_symb(2);
6890  0f86 ae0002        	ldw	x,#2
6891  0f89 cd0c86        	call	_clean_symb
6893                     ; 708 			coord(0, 1);
6895  0f8c ae0001        	ldw	x,#1
6896  0f8f 89            	pushw	x
6897  0f90 5f            	clrw	x
6898  0f91 cd0bca        	call	_coord
6900  0f94 85            	popw	x
6901                     ; 709 			write_symb(13);//N
6903  0f95 ae000d        	ldw	x,#13
6904  0f98 cd0c20        	call	_write_symb
6906                     ; 710 			write_symb(14);//O
6908  0f9b ae000e        	ldw	x,#14
6909  0f9e cd0c20        	call	_write_symb
6911                     ; 711 			write_symb(19);//T
6913  0fa1 ae0013        	ldw	x,#19
6914  0fa4 cd0c20        	call	_write_symb
6916                     ; 712 			write_symb(31);//" "
6918  0fa7 ae001f        	ldw	x,#31
6919  0faa cd0c20        	call	_write_symb
6921                     ; 713 			write_symb(0);//A
6923  0fad 5f            	clrw	x
6924  0fae cd0c20        	call	_write_symb
6926                     ; 714 			write_symb(21);//V
6928  0fb1 ae0015        	ldw	x,#21
6929  0fb4 cd0c20        	call	_write_symb
6931                     ; 715 			write_symb(4);//E
6933  0fb7 ae0004        	ldw	x,#4
6934  0fba cd0c20        	call	_write_symb
6936                     ; 716 			write_symb(11);//L		
6938  0fbd ae000b        	ldw	x,#11
6939  0fc0 cd0c20        	call	_write_symb
6941                     ; 717 			write_symb(8);//I		
6943  0fc3 ae0008        	ldw	x,#8
6944  0fc6 cd0c20        	call	_write_symb
6946                     ; 718 			write_symb(1);//B	
6948  0fc9 ae0001        	ldw	x,#1
6949  0fcc cd0c20        	call	_write_symb
6952  0fcf 2005          	jra	L1103
6953  0fd1               L3103:
6954                     ; 721 	else if (form_status == 2){
6956  0fd1 1e01          	ldw	x,(OFST+1,sp)
6957  0fd3 a30002        	cpw	x,#2
6958  0fd6               L1103:
6959                     ; 724 }
6962  0fd6 85            	popw	x
6963  0fd7 81            	ret
7010                     	switch	.const
7011  001c               L032:
7012  001c 0000000a      	dc.l	10
7013                     ; 728 void print_freq(long int frequency_value, int form_status){
7014                     	switch	.text
7015  0fd8               _print_freq:
7017  0fd8 89            	pushw	x
7018       00000002      OFST:	set	2
7021                     ; 729 	if((form_status == 0)|(form_status == 2)){
7023  0fd9 1e09          	ldw	x,(OFST+7,sp)
7024  0fdb 270a          	jreq	L1403
7026  0fdd 1e09          	ldw	x,(OFST+7,sp)
7027  0fdf a30002        	cpw	x,#2
7028  0fe2 2703          	jreq	L232
7029  0fe4 cc109b        	jp	L7303
7030  0fe7               L232:
7031  0fe7               L1403:
7032                     ; 731 		crystal_select(2);
7034  0fe7 ae0002        	ldw	x,#2
7035  0fea cd0c58        	call	_crystal_select
7037                     ; 732 		coord(0, 1);
7039  0fed ae0001        	ldw	x,#1
7040  0ff0 89            	pushw	x
7041  0ff1 5f            	clrw	x
7042  0ff2 cd0bca        	call	_coord
7044  0ff5 85            	popw	x
7045                     ; 733 		clean_symb(2);
7047  0ff6 ae0002        	ldw	x,#2
7048  0ff9 cd0c86        	call	_clean_symb
7050                     ; 734 		coord(51, 1);
7052  0ffc ae0001        	ldw	x,#1
7053  0fff 89            	pushw	x
7054  1000 ae0033        	ldw	x,#51
7055  1003 cd0bca        	call	_coord
7057  1006 85            	popw	x
7058                     ; 735 		write_symb(7);//H
7060  1007 ae0007        	ldw	x,#7
7061  100a cd0c20        	call	_write_symb
7063                     ; 736 		write_symb(34);//z	
7065  100d ae0022        	ldw	x,#34
7066  1010 cd0c20        	call	_write_symb
7068                     ; 738 		current_exponent_check = frequency_value;
7070  1013 1e07          	ldw	x,(OFST+5,sp)
7071  1015 cf0020        	ldw	_current_exponent_check+2,x
7072  1018 1e05          	ldw	x,(OFST+3,sp)
7073  101a cf001e        	ldw	_current_exponent_check,x
7074                     ; 739 		if (frequency_value == 0){
7076  101d 96            	ldw	x,sp
7077  101e 1c0005        	addw	x,#OFST+3
7078  1021 cd0000        	call	c_lzmp
7080  1024 2611          	jrne	L3403
7081                     ; 740 			coord(41 ,1);
7083  1026 ae0001        	ldw	x,#1
7084  1029 89            	pushw	x
7085  102a ae0029        	ldw	x,#41
7086  102d cd0bca        	call	_coord
7088  1030 85            	popw	x
7089                     ; 741 			write_numb(0);
7091  1031 5f            	clrw	x
7092  1032 cd0be8        	call	_write_numb
7095  1035 2064          	jra	L7303
7096  1037               L3403:
7097                     ; 744 			for(counter_exponent = 0; counter_exponent < 6; counter_exponent++){
7099  1037 5f            	clrw	x
7100  1038 cf0024        	ldw	_counter_exponent,x
7101  103b               L7403:
7102                     ; 745 				current_exponent_value = current_exponent_check % 10;
7104  103b ae001e        	ldw	x,#_current_exponent_check
7105  103e cd0000        	call	c_ltor
7107  1041 ae001c        	ldw	x,#L032
7108  1044 cd0000        	call	c_lmod
7110  1047 be02          	ldw	x,c_lreg+2
7111  1049 cf0022        	ldw	_current_exponent_value,x
7112                     ; 746 				current_exponent_check = current_exponent_check /10; 
7114  104c ae001e        	ldw	x,#_current_exponent_check
7115  104f cd0000        	call	c_ltor
7117  1052 ae001c        	ldw	x,#L032
7118  1055 cd0000        	call	c_ldiv
7120  1058 ae001e        	ldw	x,#_current_exponent_check
7121  105b cd0000        	call	c_rtol
7123                     ; 747 				if ((current_exponent_value == 0) & (current_exponent_check == 0)){
7125  105e ce0022        	ldw	x,_current_exponent_value
7126  1061 2608          	jrne	L5503
7128  1063 ae001e        	ldw	x,#_current_exponent_check
7129  1066 cd0000        	call	c_lzmp
7131  1069 2730          	jreq	L7303
7132                     ; 748 					break;
7134  106b               L5503:
7135                     ; 750 				coord(41 - (counter_exponent * 5),1);
7137  106b ae0001        	ldw	x,#1
7138  106e 89            	pushw	x
7139  106f ce0024        	ldw	x,_counter_exponent
7140  1072 a605          	ld	a,#5
7141  1074 cd0000        	call	c_bmulx
7143  1077 1f03          	ldw	(OFST+1,sp),x
7145  1079 ae0029        	ldw	x,#41
7146  107c 72f003        	subw	x,(OFST+1,sp)
7147  107f cd0bca        	call	_coord
7149  1082 85            	popw	x
7150                     ; 751 				write_numb(current_exponent_value);
7152  1083 ce0022        	ldw	x,_current_exponent_value
7153  1086 cd0be8        	call	_write_numb
7155                     ; 744 			for(counter_exponent = 0; counter_exponent < 6; counter_exponent++){
7157  1089 ce0024        	ldw	x,_counter_exponent
7158  108c 1c0001        	addw	x,#1
7159  108f cf0024        	ldw	_counter_exponent,x
7162  1092 9c            	rvf
7163  1093 ce0024        	ldw	x,_counter_exponent
7164  1096 a30006        	cpw	x,#6
7165  1099 2fa0          	jrslt	L7403
7166  109b               L7303:
7167                     ; 755 }
7170  109b 85            	popw	x
7171  109c 81            	ret
7209                     ; 757 void print_ampl(int ampitude_value_10){
7210                     	switch	.text
7211  109d               _print_ampl:
7213  109d 89            	pushw	x
7214       00000000      OFST:	set	0
7217                     ; 758 		crystal_select(2);
7219  109e ae0002        	ldw	x,#2
7220  10a1 cd0c58        	call	_crystal_select
7222                     ; 759 		coord(0, 2);
7224  10a4 ae0002        	ldw	x,#2
7225  10a7 89            	pushw	x
7226  10a8 5f            	clrw	x
7227  10a9 cd0bca        	call	_coord
7229  10ac 85            	popw	x
7230                     ; 760 		clean_symb(2);
7232  10ad ae0002        	ldw	x,#2
7233  10b0 cd0c86        	call	_clean_symb
7235                     ; 761 		coord(57, 2);
7237  10b3 ae0002        	ldw	x,#2
7238  10b6 89            	pushw	x
7239  10b7 ae0039        	ldw	x,#57
7240  10ba cd0bca        	call	_coord
7242  10bd 85            	popw	x
7243                     ; 762 		write_symb(1);//B	
7245  10be ae0001        	ldw	x,#1
7246  10c1 cd0c20        	call	_write_symb
7248                     ; 764 		if (ampitude_value_10 == 0){
7250  10c4 1e01          	ldw	x,(OFST+1,sp)
7251  10c6 2611          	jrne	L3703
7252                     ; 765 			coord(47 ,2);
7254  10c8 ae0002        	ldw	x,#2
7255  10cb 89            	pushw	x
7256  10cc ae002f        	ldw	x,#47
7257  10cf cd0bca        	call	_coord
7259  10d2 85            	popw	x
7260                     ; 766 			write_numb(0);
7262  10d3 5f            	clrw	x
7263  10d4 cd0be8        	call	_write_numb
7266  10d7 2042          	jra	L5703
7267  10d9               L3703:
7268                     ; 769 			current_exponent_value = ampitude_value_10;
7270  10d9 1e01          	ldw	x,(OFST+1,sp)
7271  10db cf0022        	ldw	_current_exponent_value,x
7272                     ; 770 			coord(47 ,2);
7274  10de ae0002        	ldw	x,#2
7275  10e1 89            	pushw	x
7276  10e2 ae002f        	ldw	x,#47
7277  10e5 cd0bca        	call	_coord
7279  10e8 85            	popw	x
7280                     ; 771 			write_numb(current_exponent_value % 10);
7282  10e9 ce0022        	ldw	x,_current_exponent_value
7283  10ec a60a          	ld	a,#10
7284  10ee cd0000        	call	c_smodx
7286  10f1 cd0be8        	call	_write_numb
7288                     ; 772 			coord(42 ,2);
7290  10f4 ae0002        	ldw	x,#2
7291  10f7 89            	pushw	x
7292  10f8 ae002a        	ldw	x,#42
7293  10fb cd0bca        	call	_coord
7295  10fe 85            	popw	x
7296                     ; 773 			write_numb(10);
7298  10ff ae000a        	ldw	x,#10
7299  1102 cd0be8        	call	_write_numb
7301                     ; 774 			coord(37 ,2);
7303  1105 ae0002        	ldw	x,#2
7304  1108 89            	pushw	x
7305  1109 ae0025        	ldw	x,#37
7306  110c cd0bca        	call	_coord
7308  110f 85            	popw	x
7309                     ; 775 			write_numb(current_exponent_value / 10);
7311  1110 ce0022        	ldw	x,_current_exponent_value
7312  1113 a60a          	ld	a,#10
7313  1115 cd0000        	call	c_sdivx
7315  1118 cd0be8        	call	_write_numb
7317  111b               L5703:
7318                     ; 777 }
7321  111b 85            	popw	x
7322  111c 81            	ret
7369                     ; 779 void print_tplus(long int tplus_value, int form_status){
7370                     	switch	.text
7371  111d               _print_tplus:
7373  111d 89            	pushw	x
7374       00000002      OFST:	set	2
7377                     ; 780 	if((form_status == 1)|(form_status == 2)){
7379  111e 1e09          	ldw	x,(OFST+7,sp)
7380  1120 a30001        	cpw	x,#1
7381  1123 270a          	jreq	L7113
7383  1125 1e09          	ldw	x,(OFST+7,sp)
7384  1127 a30002        	cpw	x,#2
7385  112a 2703          	jreq	L042
7386  112c cc11e3        	jp	L5113
7387  112f               L042:
7388  112f               L7113:
7389                     ; 782 		crystal_select(2);
7391  112f ae0002        	ldw	x,#2
7392  1132 cd0c58        	call	_crystal_select
7394                     ; 783 		coord(0, 3);
7396  1135 ae0003        	ldw	x,#3
7397  1138 89            	pushw	x
7398  1139 5f            	clrw	x
7399  113a cd0bca        	call	_coord
7401  113d 85            	popw	x
7402                     ; 784 		clean_symb(2);
7404  113e ae0002        	ldw	x,#2
7405  1141 cd0c86        	call	_clean_symb
7407                     ; 785 		coord(51, 3);
7409  1144 ae0003        	ldw	x,#3
7410  1147 89            	pushw	x
7411  1148 ae0033        	ldw	x,#51
7412  114b cd0bca        	call	_coord
7414  114e 85            	popw	x
7415                     ; 786 		write_symb(32);//u	
7417  114f ae0020        	ldw	x,#32
7418  1152 cd0c20        	call	_write_symb
7420                     ; 787 		write_symb(33);//s 	
7422  1155 ae0021        	ldw	x,#33
7423  1158 cd0c20        	call	_write_symb
7425                     ; 789 		current_exponent_check = tplus_value;
7427  115b 1e07          	ldw	x,(OFST+5,sp)
7428  115d cf0020        	ldw	_current_exponent_check+2,x
7429  1160 1e05          	ldw	x,(OFST+3,sp)
7430  1162 cf001e        	ldw	_current_exponent_check,x
7431                     ; 790 		if (tplus_value == 0){
7433  1165 96            	ldw	x,sp
7434  1166 1c0005        	addw	x,#OFST+3
7435  1169 cd0000        	call	c_lzmp
7437  116c 2611          	jrne	L1213
7438                     ; 791 			coord(41 ,3);
7440  116e ae0003        	ldw	x,#3
7441  1171 89            	pushw	x
7442  1172 ae0029        	ldw	x,#41
7443  1175 cd0bca        	call	_coord
7445  1178 85            	popw	x
7446                     ; 792 			write_numb(0);
7448  1179 5f            	clrw	x
7449  117a cd0be8        	call	_write_numb
7452  117d 2064          	jra	L5113
7453  117f               L1213:
7454                     ; 795 			for(counter_exponent = 0; counter_exponent < 6; counter_exponent++){
7456  117f 5f            	clrw	x
7457  1180 cf0024        	ldw	_counter_exponent,x
7458  1183               L5213:
7459                     ; 796 				current_exponent_value = current_exponent_check % 10;
7461  1183 ae001e        	ldw	x,#_current_exponent_check
7462  1186 cd0000        	call	c_ltor
7464  1189 ae001c        	ldw	x,#L032
7465  118c cd0000        	call	c_lmod
7467  118f be02          	ldw	x,c_lreg+2
7468  1191 cf0022        	ldw	_current_exponent_value,x
7469                     ; 797 				current_exponent_check = current_exponent_check /10; 
7471  1194 ae001e        	ldw	x,#_current_exponent_check
7472  1197 cd0000        	call	c_ltor
7474  119a ae001c        	ldw	x,#L032
7475  119d cd0000        	call	c_ldiv
7477  11a0 ae001e        	ldw	x,#_current_exponent_check
7478  11a3 cd0000        	call	c_rtol
7480                     ; 798 				if ((current_exponent_value == 0) & (current_exponent_check == 0)){
7482  11a6 ce0022        	ldw	x,_current_exponent_value
7483  11a9 2608          	jrne	L3313
7485  11ab ae001e        	ldw	x,#_current_exponent_check
7486  11ae cd0000        	call	c_lzmp
7488  11b1 2730          	jreq	L5113
7489                     ; 799 					break;
7491  11b3               L3313:
7492                     ; 801 				coord(41 - (counter_exponent * 5),3);
7494  11b3 ae0003        	ldw	x,#3
7495  11b6 89            	pushw	x
7496  11b7 ce0024        	ldw	x,_counter_exponent
7497  11ba a605          	ld	a,#5
7498  11bc cd0000        	call	c_bmulx
7500  11bf 1f03          	ldw	(OFST+1,sp),x
7502  11c1 ae0029        	ldw	x,#41
7503  11c4 72f003        	subw	x,(OFST+1,sp)
7504  11c7 cd0bca        	call	_coord
7506  11ca 85            	popw	x
7507                     ; 802 				write_numb(current_exponent_value);
7509  11cb ce0022        	ldw	x,_current_exponent_value
7510  11ce cd0be8        	call	_write_numb
7512                     ; 795 			for(counter_exponent = 0; counter_exponent < 6; counter_exponent++){
7514  11d1 ce0024        	ldw	x,_counter_exponent
7515  11d4 1c0001        	addw	x,#1
7516  11d7 cf0024        	ldw	_counter_exponent,x
7519  11da 9c            	rvf
7520  11db ce0024        	ldw	x,_counter_exponent
7521  11de a30006        	cpw	x,#6
7522  11e1 2fa0          	jrslt	L5213
7523  11e3               L5113:
7524                     ; 806 }
7527  11e3 85            	popw	x
7528  11e4 81            	ret
7575                     ; 808 void print_tminus(long int tminus_value, int form_status){
7576                     	switch	.text
7577  11e5               _print_tminus:
7579  11e5 89            	pushw	x
7580       00000002      OFST:	set	2
7583                     ; 809 	if((form_status == 1)|(form_status == 2)){
7585  11e6 1e09          	ldw	x,(OFST+7,sp)
7586  11e8 a30001        	cpw	x,#1
7587  11eb 270a          	jreq	L5513
7589  11ed 1e09          	ldw	x,(OFST+7,sp)
7590  11ef a30002        	cpw	x,#2
7591  11f2 2703          	jreq	L442
7592  11f4 cc12ab        	jp	L3513
7593  11f7               L442:
7594  11f7               L5513:
7595                     ; 811 		crystal_select(2);
7597  11f7 ae0002        	ldw	x,#2
7598  11fa cd0c58        	call	_crystal_select
7600                     ; 812 		coord(0, 4);
7602  11fd ae0004        	ldw	x,#4
7603  1200 89            	pushw	x
7604  1201 5f            	clrw	x
7605  1202 cd0bca        	call	_coord
7607  1205 85            	popw	x
7608                     ; 813 		clean_symb(2);
7610  1206 ae0002        	ldw	x,#2
7611  1209 cd0c86        	call	_clean_symb
7613                     ; 814 		coord(51, 4);
7615  120c ae0004        	ldw	x,#4
7616  120f 89            	pushw	x
7617  1210 ae0033        	ldw	x,#51
7618  1213 cd0bca        	call	_coord
7620  1216 85            	popw	x
7621                     ; 815 		write_symb(32);//u	
7623  1217 ae0020        	ldw	x,#32
7624  121a cd0c20        	call	_write_symb
7626                     ; 816 		write_symb(33);//s 	
7628  121d ae0021        	ldw	x,#33
7629  1220 cd0c20        	call	_write_symb
7631                     ; 818 		current_exponent_check = tminus_value;
7633  1223 1e07          	ldw	x,(OFST+5,sp)
7634  1225 cf0020        	ldw	_current_exponent_check+2,x
7635  1228 1e05          	ldw	x,(OFST+3,sp)
7636  122a cf001e        	ldw	_current_exponent_check,x
7637                     ; 819 		if (tminus_value == 0){
7639  122d 96            	ldw	x,sp
7640  122e 1c0005        	addw	x,#OFST+3
7641  1231 cd0000        	call	c_lzmp
7643  1234 2611          	jrne	L7513
7644                     ; 820 			coord(41 ,4);
7646  1236 ae0004        	ldw	x,#4
7647  1239 89            	pushw	x
7648  123a ae0029        	ldw	x,#41
7649  123d cd0bca        	call	_coord
7651  1240 85            	popw	x
7652                     ; 821 			write_numb(0);
7654  1241 5f            	clrw	x
7655  1242 cd0be8        	call	_write_numb
7658  1245 2064          	jra	L3513
7659  1247               L7513:
7660                     ; 824 			for(counter_exponent = 0; counter_exponent < 6; counter_exponent++){
7662  1247 5f            	clrw	x
7663  1248 cf0024        	ldw	_counter_exponent,x
7664  124b               L3613:
7665                     ; 825 				current_exponent_value = current_exponent_check % 10;
7667  124b ae001e        	ldw	x,#_current_exponent_check
7668  124e cd0000        	call	c_ltor
7670  1251 ae001c        	ldw	x,#L032
7671  1254 cd0000        	call	c_lmod
7673  1257 be02          	ldw	x,c_lreg+2
7674  1259 cf0022        	ldw	_current_exponent_value,x
7675                     ; 826 				current_exponent_check = current_exponent_check /10; 
7677  125c ae001e        	ldw	x,#_current_exponent_check
7678  125f cd0000        	call	c_ltor
7680  1262 ae001c        	ldw	x,#L032
7681  1265 cd0000        	call	c_ldiv
7683  1268 ae001e        	ldw	x,#_current_exponent_check
7684  126b cd0000        	call	c_rtol
7686                     ; 827 				if ((current_exponent_value == 0) & (current_exponent_check == 0)){
7688  126e ce0022        	ldw	x,_current_exponent_value
7689  1271 2608          	jrne	L1713
7691  1273 ae001e        	ldw	x,#_current_exponent_check
7692  1276 cd0000        	call	c_lzmp
7694  1279 2730          	jreq	L3513
7695                     ; 828 					break;
7697  127b               L1713:
7698                     ; 830 				coord(41 - (counter_exponent * 5),4);
7700  127b ae0004        	ldw	x,#4
7701  127e 89            	pushw	x
7702  127f ce0024        	ldw	x,_counter_exponent
7703  1282 a605          	ld	a,#5
7704  1284 cd0000        	call	c_bmulx
7706  1287 1f03          	ldw	(OFST+1,sp),x
7708  1289 ae0029        	ldw	x,#41
7709  128c 72f003        	subw	x,(OFST+1,sp)
7710  128f cd0bca        	call	_coord
7712  1292 85            	popw	x
7713                     ; 831 				write_numb(current_exponent_value);
7715  1293 ce0022        	ldw	x,_current_exponent_value
7716  1296 cd0be8        	call	_write_numb
7718                     ; 824 			for(counter_exponent = 0; counter_exponent < 6; counter_exponent++){
7720  1299 ce0024        	ldw	x,_counter_exponent
7721  129c 1c0001        	addw	x,#1
7722  129f cf0024        	ldw	_counter_exponent,x
7725  12a2 9c            	rvf
7726  12a3 ce0024        	ldw	x,_counter_exponent
7727  12a6 a30006        	cpw	x,#6
7728  12a9 2fa0          	jrslt	L3613
7729  12ab               L3513:
7730                     ; 835 }
7733  12ab 85            	popw	x
7734  12ac 81            	ret
7769                     ; 836 void print_start_stop(int start_stop_flag){
7770                     	switch	.text
7771  12ad               _print_start_stop:
7773  12ad 89            	pushw	x
7774       00000000      OFST:	set	0
7777                     ; 837 	crystal_select(1);
7779  12ae ae0001        	ldw	x,#1
7780  12b1 cd0c58        	call	_crystal_select
7782                     ; 838 	coord(6,7);
7784  12b4 ae0007        	ldw	x,#7
7785  12b7 89            	pushw	x
7786  12b8 ae0006        	ldw	x,#6
7787  12bb cd0bca        	call	_coord
7789  12be 85            	popw	x
7790                     ; 839 	if (start_stop_flag==1){
7792  12bf 1e01          	ldw	x,(OFST+1,sp)
7793  12c1 a30001        	cpw	x,#1
7794  12c4 261e          	jrne	L7023
7795                     ; 840 		write_symb(18);//S
7797  12c6 ae0012        	ldw	x,#18
7798  12c9 cd0c20        	call	_write_symb
7800                     ; 841 		write_symb(19);//T	
7802  12cc ae0013        	ldw	x,#19
7803  12cf cd0c20        	call	_write_symb
7805                     ; 842 		write_symb(0);//A
7807  12d2 5f            	clrw	x
7808  12d3 cd0c20        	call	_write_symb
7810                     ; 843 		write_symb(17);//R
7812  12d6 ae0011        	ldw	x,#17
7813  12d9 cd0c20        	call	_write_symb
7815                     ; 844 		write_symb(19);//T		
7817  12dc ae0013        	ldw	x,#19
7818  12df cd0c20        	call	_write_symb
7821  12e2 2022          	jra	L1123
7822  12e4               L7023:
7823                     ; 846 	else if (start_stop_flag == 0){
7825  12e4 1e01          	ldw	x,(OFST+1,sp)
7826  12e6 261e          	jrne	L1123
7827                     ; 847 		write_symb(18);//S
7829  12e8 ae0012        	ldw	x,#18
7830  12eb cd0c20        	call	_write_symb
7832                     ; 848 		write_symb(19);//T	
7834  12ee ae0013        	ldw	x,#19
7835  12f1 cd0c20        	call	_write_symb
7837                     ; 849 		write_symb(14);//O
7839  12f4 ae000e        	ldw	x,#14
7840  12f7 cd0c20        	call	_write_symb
7842                     ; 850 		write_symb(15);//P
7844  12fa ae000f        	ldw	x,#15
7845  12fd cd0c20        	call	_write_symb
7847                     ; 851 		write_symb(31);//" "	
7849  1300 ae001f        	ldw	x,#31
7850  1303 cd0c20        	call	_write_symb
7852  1306               L1123:
7853                     ; 853 }
7856  1306 85            	popw	x
7857  1307 81            	ret
7892                     ; 856 void spi_write(int print_value){
7893                     	switch	.text
7894  1308               _spi_write:
7896  1308 89            	pushw	x
7897       00000000      OFST:	set	0
7900                     ; 858 		PE_CR2 = 0x00;
7902  1309 725f5018      	clr	_PE_CR2
7904  130d               L5323:
7905                     ; 859 	while(!((SPI_SR&0x02)>>1));
7907  130d c65203        	ld	a,_SPI_SR
7908  1310 44            	srl	a
7909  1311 5f            	clrw	x
7910  1312 a401          	and	a,#1
7911  1314 5f            	clrw	x
7912  1315 5f            	clrw	x
7913  1316 97            	ld	xl,a
7914  1317 a30000        	cpw	x,#0
7915  131a 27f1          	jreq	L5323
7916                     ; 860 	SPI_DR = print_value;
7918  131c 7b02          	ld	a,(OFST+2,sp)
7919  131e c75204        	ld	_SPI_DR,a
7921  1321               L5423:
7922                     ; 861 	while(!((SPI_SR&0x80)>>7));
7924  1321 c65203        	ld	a,_SPI_SR
7925  1324 49            	rlc	a
7926  1325 4f            	clr	a
7927  1326 49            	rlc	a
7928  1327 5f            	clrw	x
7929  1328 97            	ld	xl,a
7930  1329 a30000        	cpw	x,#0
7931  132c 27f3          	jreq	L5423
7932                     ; 863 			PE_CR2 = 0x0F;
7934  132e 350f5018      	mov	_PE_CR2,#15
7935                     ; 865 }
7938  1332 85            	popw	x
7939  1333 81            	ret
7975                     ; 869 void dac_write_raw( int raw_dac_value){
7976                     	switch	.text
7977  1334               _dac_write_raw:
7979  1334 89            	pushw	x
7980       00000000      OFST:	set	0
7983                     ; 872 	dac_msb =  (raw_dac_value >> 8);
7985  1335 4f            	clr	a
7986  1336 5d            	tnzw	x
7987  1337 2a01          	jrpl	L452
7988  1339 43            	cpl	a
7989  133a               L452:
7990  133a 97            	ld	xl,a
7991  133b 5e            	swapw	x
7992  133c cf000c        	ldw	_dac_msb,x
7993                     ; 873 	dac_lsb = (raw_dac_value & 0xFF);
7995  133f 7b01          	ld	a,(OFST+1,sp)
7996  1341 97            	ld	xl,a
7997  1342 7b02          	ld	a,(OFST+2,sp)
7998  1344 a4ff          	and	a,#255
7999  1346 5f            	clrw	x
8000  1347 c7000b        	ld	_dac_lsb+1,a
8001  134a 9f            	ld	a,xl
8002  134b c7000a        	ld	_dac_lsb,a
8003                     ; 874 	PA_ODR = 0x00;
8005  134e 725f5000      	clr	_PA_ODR
8006                     ; 875 	spi_write(dac_msb);
8008  1352 ce000c        	ldw	x,_dac_msb
8009  1355 adb1          	call	_spi_write
8011                     ; 876 	spi_write(dac_lsb);
8013  1357 ce000a        	ldw	x,_dac_lsb
8014  135a adac          	call	_spi_write
8016                     ; 877 	PA_ODR = 0xFF;
8018  135c 35ff5000      	mov	_PA_ODR,#255
8019                     ; 878 }
8022  1360 85            	popw	x
8023  1361 81            	ret
8060                     ; 881 void delay_us(long int timer_delay_us){
8061                     	switch	.text
8062  1362               _delay_us:
8064       00000000      OFST:	set	0
8067                     ; 882 	if(timer_delay_us > 0){
8069  1362 9c            	rvf
8070  1363 96            	ldw	x,sp
8071  1364 1c0003        	addw	x,#OFST+3
8072  1367 cd0000        	call	c_lzmp
8074  136a 2d27          	jrsle	L1033
8075                     ; 883 		TIM1_PSCRL = 0x0F;
8077  136c 350f5261      	mov	_TIM1_PSCRL,#15
8078                     ; 884 		TIM1_ARRH = timer_delay_us >> 8;
8080  1370 7b05          	ld	a,(OFST+5,sp)
8081  1372 c75262        	ld	_TIM1_ARRH,a
8082                     ; 885 		TIM1_ARRL = (timer_delay_us & 0xFF) ;
8084  1375 7b06          	ld	a,(OFST+6,sp)
8085  1377 a4ff          	and	a,#255
8086  1379 c75263        	ld	_TIM1_ARRL,a
8087                     ; 886 		TIM1_CR1 |= 0x09;
8089  137c c65250        	ld	a,_TIM1_CR1
8090  137f aa09          	or	a,#9
8091  1381 c75250        	ld	_TIM1_CR1,a
8092                     ; 887 		TIM1_SR1 &=0xFE;
8094  1384 72115255      	bres	_TIM1_SR1,#0
8096  1388               L5033:
8097                     ; 888 		while((TIM1_SR1 & 0x01) == 0x00){}
8099  1388 c65255        	ld	a,_TIM1_SR1
8100  138b a501          	bcp	a,#1
8101  138d 27f9          	jreq	L5033
8102                     ; 889 		TIM1_SR1 &=0xFE;
8104  138f 72115255      	bres	_TIM1_SR1,#0
8105  1393               L1033:
8106                     ; 891 }
8109  1393 81            	ret
8469                     	xdef	_main
8470                     	xdef	_clean
8471                     	xdef	_start
8472                     	xdef	_strob
8473                     	xdef	_print_start_stop
8474                     	xdef	_print_tminus
8475                     	xdef	_print_tplus
8476                     	xdef	_print_ampl
8477                     	xdef	_print_freq
8478                     	xdef	_title_not_avelible
8479                     	xdef	_chose_form
8480                     	xdef	_title_tminus
8481                     	xdef	_title_tplus
8482                     	xdef	_title_ampl
8483                     	xdef	_title_freq
8484                     	xdef	_title_form
8485                     	xdef	_clean_cursor
8486                     	xdef	_set_cursor
8487                     	xdef	_clean_symb
8488                     	xdef	_crystal_select
8489                     	xdef	_write_symb
8490                     	xdef	_write_numb
8491                     	xdef	_coord
8492                     	xdef	_delay
8493                     	xdef	_sin_arr
8494                     	xdef	_Hsymb_arr
8495                     	xdef	_numb_arr
8496                     	xdef	_delay_us
8497                     	xdef	_dac_write_raw
8498                     	xdef	_spi_write
8499                     	switch	.bss
8500  0000               _dac_sin_value:
8501  0000 00000000      	ds.b	4
8502                     	xdef	_dac_sin_value
8503  0004               _sin_counter:
8504  0004 0000          	ds.b	2
8505                     	xdef	_sin_counter
8506  0006               _triang_counter:
8507  0006 0000          	ds.b	2
8508                     	xdef	_triang_counter
8509  0008               _raw_dac_value:
8510  0008 0000          	ds.b	2
8511                     	xdef	_raw_dac_value
8512  000a               _dac_lsb:
8513  000a 0000          	ds.b	2
8514                     	xdef	_dac_lsb
8515  000c               _dac_msb:
8516  000c 0000          	ds.b	2
8517                     	xdef	_dac_msb
8518  000e               _dac_counter:
8519  000e 0000          	ds.b	2
8520                     	xdef	_dac_counter
8521  0010               _chip_select:
8522  0010 0000          	ds.b	2
8523                     	xdef	_chip_select
8524  0012               _print_value:
8525  0012 0000          	ds.b	2
8526                     	xdef	_print_value
8527  0014               _sin_pause:
8528  0014 0000          	ds.b	2
8529                     	xdef	_sin_pause
8530  0016               _triang_pause:
8531  0016 00000000      	ds.b	4
8532                     	xdef	_triang_pause
8533  001a               _timer_delay_us:
8534  001a 00000000      	ds.b	4
8535                     	xdef	_timer_delay_us
8536  001e               _current_exponent_check:
8537  001e 00000000      	ds.b	4
8538                     	xdef	_current_exponent_check
8539  0022               _current_exponent_value:
8540  0022 0000          	ds.b	2
8541                     	xdef	_current_exponent_value
8542  0024               _counter_exponent:
8543  0024 0000          	ds.b	2
8544                     	xdef	_counter_exponent
8545  0026               _pre_frequency_value:
8546  0026 00000000      	ds.b	4
8547                     	xdef	_pre_frequency_value
8548  002a               _frequency_value:
8549  002a 00000000      	ds.b	4
8550                     	xdef	_frequency_value
8551  002e               _start_stop_flag:
8552  002e 0000          	ds.b	2
8553                     	xdef	_start_stop_flag
8554  0030               _left_right_menue_flag:
8555  0030 0000          	ds.b	2
8556                     	xdef	_left_right_menue_flag
8557  0032               _is_it_this_button:
8558  0032 0000          	ds.b	2
8559                     	xdef	_is_it_this_button
8560  0034               _counter_columns:
8561  0034 0000          	ds.b	2
8562                     	xdef	_counter_columns
8563  0036               _counter_raws:
8564  0036 0000          	ds.b	2
8565                     	xdef	_counter_raws
8566  0038               _raw_number_button:
8567  0038 0000          	ds.b	2
8568                     	xdef	_raw_number_button
8569  003a               _number_button:
8570  003a 0000          	ds.b	2
8571                     	xdef	_number_button
8572  003c               _pre_tminus_value:
8573  003c 00000000      	ds.b	4
8574                     	xdef	_pre_tminus_value
8575  0040               _tminus_value:
8576  0040 00000000      	ds.b	4
8577                     	xdef	_tminus_value
8578  0044               _pre_tplus_value:
8579  0044 00000000      	ds.b	4
8580                     	xdef	_pre_tplus_value
8581  0048               _tplus_value:
8582  0048 00000000      	ds.b	4
8583                     	xdef	_tplus_value
8584  004c               _pre_amplitude_value_10:
8585  004c 0000          	ds.b	2
8586                     	xdef	_pre_amplitude_value_10
8587  004e               _amplitude_value_10:
8588  004e 0000          	ds.b	2
8589                     	xdef	_amplitude_value_10
8590  0050               _pre_form_status:
8591  0050 0000          	ds.b	2
8592                     	xdef	_pre_form_status
8593  0052               _form_status:
8594  0052 0000          	ds.b	2
8595                     	xdef	_form_status
8596  0054               _pre_cursor:
8597  0054 0000          	ds.b	2
8598                     	xdef	_pre_cursor
8599  0056               _cursor:
8600  0056 0000          	ds.b	2
8601                     	xdef	_cursor
8602  0058               _symb_type:
8603  0058 0000          	ds.b	2
8604                     	xdef	_symb_type
8605  005a               _crystal_numb:
8606  005a 0000          	ds.b	2
8607                     	xdef	_crystal_numb
8608  005c               _write_counter:
8609  005c 0000          	ds.b	2
8610                     	xdef	_write_counter
8611  005e               _symbol_number:
8612  005e 0000          	ds.b	2
8613                     	xdef	_symbol_number
8614  0060               _y_coord:
8615  0060 0000          	ds.b	2
8616                     	xdef	_y_coord
8617  0062               _x_coord:
8618  0062 0000          	ds.b	2
8619                     	xdef	_x_coord
8620  0064               _counter_pages:
8621  0064 0000          	ds.b	2
8622                     	xdef	_counter_pages
8623  0066               _counter_64:
8624  0066 0000          	ds.b	2
8625                     	xdef	_counter_64
8626  0068               _delay_count:
8627  0068 0000          	ds.b	2
8628                     	xdef	_delay_count
8629  006a               _delay_number:
8630  006a 0000          	ds.b	2
8631                     	xdef	_delay_number
8632                     	xdef	f_EXTI_PortE
8633                     	xref.b	c_lreg
8634                     	xref.b	c_x
8654                     	xref	c_smodx
8655                     	xref	c_bmuly
8656                     	xref	c_lmod
8657                     	xref	c_lgadd
8658                     	xref	c_lgadc
8659                     	xref	c_ladc
8660                     	xref	c_smul
8661                     	xref	c_itolx
8662                     	xref	c_imul
8663                     	xref	c_lsbc
8664                     	xref	c_sdivx
8665                     	xref	c_bmulx
8666                     	xref	c_rtol
8667                     	xref	c_lsub
8668                     	xref	c_ldiv
8669                     	xref	c_lzmp
8670                     	xref	c_lcmp
8671                     	xref	c_ltor
8672                     	end
